
CWKeyer.elf:     file format elf32-avr

Sections:
Idx Name          Size      VMA       LMA       File off  Algn
  0 .data         00000022  00800100  00001e3a  00001ece  2**0
                  CONTENTS, ALLOC, LOAD, DATA
  1 .text         00001e3a  00000000  00000000  00000094  2**1
                  CONTENTS, ALLOC, LOAD, READONLY, CODE
  2 .bss          000001dc  00800122  00800122  00001ef0  2**0
                  ALLOC
  3 .comment      00000030  00000000  00000000  00001ef0  2**0
                  CONTENTS, READONLY
  4 .note.gnu.avr.deviceinfo 00000040  00000000  00000000  00001f20  2**2
                  CONTENTS, READONLY
  5 .debug_aranges 00000500  00000000  00000000  00001f60  2**3
                  CONTENTS, READONLY, DEBUGGING
  6 .debug_info   00007e51  00000000  00000000  00002460  2**0
                  CONTENTS, READONLY, DEBUGGING
  7 .debug_abbrev 0000251f  00000000  00000000  0000a2b1  2**0
                  CONTENTS, READONLY, DEBUGGING
  8 .debug_line   0000a31b  00000000  00000000  0000c7d0  2**0
                  CONTENTS, READONLY, DEBUGGING
  9 .debug_frame  00000be8  00000000  00000000  00016aec  2**2
                  CONTENTS, READONLY, DEBUGGING
 10 .debug_str    000158d3  00000000  00000000  000176d4  2**0
                  CONTENTS, READONLY, DEBUGGING
 11 .debug_loc    000043c7  00000000  00000000  0002cfa7  2**0
                  CONTENTS, READONLY, DEBUGGING
 12 .debug_ranges 00000580  00000000  00000000  0003136e  2**0
                  CONTENTS, READONLY, DEBUGGING
 13 .debug_macro  0000760a  00000000  00000000  000318ee  2**0
                  CONTENTS, READONLY, DEBUGGING

Disassembly of section .text:

00000000 <__vectors>:
       0:	3a c1       	rjmp	.+628    	; 0x276 <__ctors_end>
       2:	00 00       	nop
       4:	55 c1       	rjmp	.+682    	; 0x2b0 <__vector_1>
       6:	00 00       	nop
       8:	5d c1       	rjmp	.+698    	; 0x2c4 <__vector_2>
       a:	00 00       	nop
       c:	50 c1       	rjmp	.+672    	; 0x2ae <__bad_interrupt>
       e:	00 00       	nop
      10:	4e c1       	rjmp	.+668    	; 0x2ae <__bad_interrupt>
      12:	00 00       	nop
      14:	4c c1       	rjmp	.+664    	; 0x2ae <__bad_interrupt>
      16:	00 00       	nop
      18:	4a c1       	rjmp	.+660    	; 0x2ae <__bad_interrupt>
      1a:	00 00       	nop
      1c:	48 c1       	rjmp	.+656    	; 0x2ae <__bad_interrupt>
      1e:	00 00       	nop
      20:	46 c1       	rjmp	.+652    	; 0x2ae <__bad_interrupt>
      22:	00 00       	nop
      24:	44 c1       	rjmp	.+648    	; 0x2ae <__bad_interrupt>
      26:	00 00       	nop
      28:	42 c1       	rjmp	.+644    	; 0x2ae <__bad_interrupt>
      2a:	00 00       	nop
      2c:	0c 94 4e 0c 	jmp	0x189c	; 0x189c <__vector_11>
      30:	0c 94 f3 0c 	jmp	0x19e6	; 0x19e6 <__vector_12>
      34:	3c c1       	rjmp	.+632    	; 0x2ae <__bad_interrupt>
      36:	00 00       	nop
      38:	3a c1       	rjmp	.+628    	; 0x2ae <__bad_interrupt>
      3a:	00 00       	nop
      3c:	8b c5       	rjmp	.+2838   	; 0xb54 <__vector_15>
      3e:	00 00       	nop
      40:	36 c1       	rjmp	.+620    	; 0x2ae <__bad_interrupt>
      42:	00 00       	nop
      44:	34 c1       	rjmp	.+616    	; 0x2ae <__bad_interrupt>
      46:	00 00       	nop
      48:	32 c1       	rjmp	.+612    	; 0x2ae <__bad_interrupt>
      4a:	00 00       	nop
      4c:	30 c1       	rjmp	.+608    	; 0x2ae <__bad_interrupt>
      4e:	00 00       	nop
      50:	2e c1       	rjmp	.+604    	; 0x2ae <__bad_interrupt>
      52:	00 00       	nop
      54:	2c c1       	rjmp	.+600    	; 0x2ae <__bad_interrupt>
      56:	00 00       	nop
      58:	2a c1       	rjmp	.+596    	; 0x2ae <__bad_interrupt>
      5a:	00 00       	nop
      5c:	28 c1       	rjmp	.+592    	; 0x2ae <__bad_interrupt>
      5e:	00 00       	nop
      60:	26 c1       	rjmp	.+588    	; 0x2ae <__bad_interrupt>
      62:	00 00       	nop
      64:	24 c1       	rjmp	.+584    	; 0x2ae <__bad_interrupt>
      66:	00 00       	nop
      68:	22 c1       	rjmp	.+580    	; 0x2ae <__bad_interrupt>
      6a:	00 00       	nop
      6c:	20 c1       	rjmp	.+576    	; 0x2ae <__bad_interrupt>
      6e:	00 00       	nop
      70:	1e c1       	rjmp	.+572    	; 0x2ae <__bad_interrupt>
      72:	00 00       	nop
      74:	b3 03       	fmuls	r19, r19
      76:	ff 03       	fmulsu	r23, r23
      78:	cb 04       	cpc	r12, r11
      7a:	35 04       	cpc	r3, r5
      7c:	c9 04       	cpc	r12, r9
      7e:	3d 04       	cpc	r3, r13
      80:	43 04       	cpc	r4, r3
      82:	c9 04       	cpc	r12, r9
      84:	c9 04       	cpc	r12, r9
      86:	c9 04       	cpc	r12, r9
      88:	c9 04       	cpc	r12, r9
      8a:	c9 04       	cpc	r12, r9
      8c:	4c 04       	cpc	r4, r12
      8e:	5e 04       	cpc	r5, r14
      90:	c9 04       	cpc	r12, r9
      92:	c9 04       	cpc	r12, r9
      94:	c9 04       	cpc	r12, r9
      96:	55 04       	cpc	r5, r5
      98:	c9 04       	cpc	r12, r9
      9a:	c9 04       	cpc	r12, r9
      9c:	c9 04       	cpc	r12, r9
      9e:	c7 04       	cpc	r12, r7
      a0:	09 04       	cpc	r0, r9
      a2:	b2 04       	cpc	r11, r2
      a4:	c7 03       	fmuls	r20, r23
      a6:	c9 03       	fmulsu	r20, r17
      a8:	cb 03       	fmulsu	r20, r19
      aa:	cd 03       	fmulsu	r20, r21
      ac:	d2 03       	fmuls	r21, r18
      ae:	d7 03       	fmuls	r21, r23
      b0:	d9 03       	fmulsu	r21, r17
      b2:	cb 04       	cpc	r12, r11
      b4:	db 03       	fmulsu	r21, r19
      b6:	dd 03       	fmulsu	r21, r21
      b8:	df 03       	fmulsu	r21, r23
      ba:	e1 03       	fmuls	r22, r17
      bc:	e3 03       	fmuls	r22, r19
      be:	e5 03       	fmuls	r22, r21
      c0:	e7 03       	fmuls	r22, r23
      c2:	ec 03       	fmulsu	r22, r20
      c4:	ee 03       	fmulsu	r22, r22
      c6:	f0 03       	fmuls	r23, r16
      c8:	cb 04       	cpc	r12, r11
      ca:	f2 03       	fmuls	r23, r18
      cc:	f4 03       	fmuls	r23, r20
      ce:	fb 03       	fmulsu	r23, r19
      d0:	fd 03       	fmulsu	r23, r21
      d2:	0c 04       	cpc	r0, r12
      d4:	10 04       	cpc	r1, r0
      d6:	1b 04       	cpc	r1, r11
      d8:	c9 04       	cpc	r12, r9
      da:	1d 04       	cpc	r1, r13
      dc:	1f 04       	cpc	r1, r15
      de:	1f 04       	cpc	r1, r15
      e0:	1f 04       	cpc	r1, r15
      e2:	1f 04       	cpc	r1, r15
      e4:	1f 04       	cpc	r1, r15
      e6:	c9 04       	cpc	r12, r9
      e8:	c9 04       	cpc	r12, r9
      ea:	25 04       	cpc	r2, r5
      ec:	29 04       	cpc	r2, r9
      ee:	c9 04       	cpc	r12, r9
      f0:	c9 04       	cpc	r12, r9
      f2:	c9 04       	cpc	r12, r9
      f4:	c9 04       	cpc	r12, r9
      f6:	c9 04       	cpc	r12, r9
      f8:	c9 04       	cpc	r12, r9
      fa:	c9 04       	cpc	r12, r9
      fc:	31 04       	cpc	r3, r1
      fe:	c9 04       	cpc	r12, r9
     100:	a5 04       	cpc	r10, r5
     102:	a1 04       	cpc	r10, r1
     104:	9d 04       	cpc	r9, r13
     106:	99 04       	cpc	r9, r9
     108:	95 04       	cpc	r9, r5
     10a:	91 04       	cpc	r9, r1
     10c:	8d 04       	cpc	r8, r13
     10e:	89 04       	cpc	r8, r9
     110:	85 04       	cpc	r8, r5
     112:	81 04       	cpc	r8, r1
     114:	7d 04       	cpc	r7, r13
     116:	77 04       	cpc	r7, r7
     118:	73 04       	cpc	r7, r3
     11a:	6f 04       	cpc	r6, r15
     11c:	6b 04       	cpc	r6, r11
     11e:	80 06       	cpc	r8, r16
     120:	08 09       	sbc	r16, r8
     122:	08 09       	sbc	r16, r8
     124:	08 09       	sbc	r16, r8
     126:	08 09       	sbc	r16, r8
     128:	08 09       	sbc	r16, r8
     12a:	08 09       	sbc	r16, r8
     12c:	08 09       	sbc	r16, r8
     12e:	08 09       	sbc	r16, r8
     130:	b3 06       	cpc	r11, r19
     132:	e6 06       	cpc	r14, r22
     134:	da 06       	cpc	r13, r26
     136:	2c 07       	cpc	r18, r28
     138:	61 07       	cpc	r22, r17
     13a:	55 07       	cpc	r21, r21
     13c:	ac 06       	cpc	r10, r28
     13e:	af 06       	cpc	r10, r31
     140:	b6 07       	cpc	r27, r22
     142:	05 09       	sbc	r16, r5
     144:	ef 08       	sbc	r14, r15
     146:	c4 08       	sbc	r12, r4
     148:	05 09       	sbc	r16, r5
     14a:	ef 08       	sbc	r14, r15
     14c:	da 08       	sbc	r13, r10
     14e:	05 09       	sbc	r16, r5
     150:	f2 08       	sbc	r15, r2
     152:	05 09       	sbc	r16, r5
     154:	05 09       	sbc	r16, r5
     156:	05 09       	sbc	r16, r5
     158:	05 09       	sbc	r16, r5
     15a:	05 09       	sbc	r16, r5
     15c:	05 09       	sbc	r16, r5
     15e:	05 09       	sbc	r16, r5
     160:	05 09       	sbc	r16, r5
     162:	05 09       	sbc	r16, r5
     164:	f2 08       	sbc	r15, r2
     166:	5e 0d       	add	r21, r14
     168:	80 0d       	add	r24, r0
     16a:	67 0e       	add	r6, r23
     16c:	80 0d       	add	r24, r0
     16e:	67 0e       	add	r6, r23
     170:	c5 0d       	add	r28, r5
     172:	e6 0d       	add	r30, r6
     174:	67 0e       	add	r6, r23
     176:	39 0e       	add	r3, r25
     178:	4b 0e       	add	r4, r27

0000017a <ProductString>:
     17a:	12 03 43 00 57 00 2d 00 4b 00 65 00 79 00 65 00     ..C.W.-.K.e.y.e.
     18a:	72 00 00 00                                         r...

0000018e <ManufacturerString>:
     18e:	12 03 65 00 48 00 61 00 4a 00 6f 00 2e 00 64 00     ..e.H.a.J.o...d.
     19e:	65 00 00 00                                         e...

000001a2 <LanguageString>:
     1a2:	04 03 09 04                                         ....

000001a6 <ConfigurationDescriptor>:
     1a6:	09 02 3e 00 02 01 00 c0 32 09 04 00 00 01 02 02     ..>.....2.......
     1b6:	01 00 05 24 00 10 01 04 24 02 06 05 24 06 00 01     ...$....$...$...
     1c6:	07 05 82 03 08 00 ff 09 04 01 00 02 0a 00 00 00     ................
     1d6:	07 05 04 02 10 00 05 07 05 83 02 10 00 05           ..............

000001e4 <DeviceDescriptor>:
     1e4:	12 01 10 01 02 00 00 08 eb 03 44 20 01 00 01 02     ..........D ....
     1f4:	dc 01                                               ..

000001f6 <morsetable>:
     1f6:	35 06 12 06 00 00 48 07 00 00 02 05 1e 06 0d 05     5.....H.........
     206:	2d 06 00 00 0a 05 33 06 21 06 2a 06 09 05 1f 05     -.....3.!.*.....
     216:	1e 05 1c 05 18 05 10 05 00 05 01 05 03 05 07 05     ................
     226:	0f 05 07 06 15 06 00 00 11 05 00 00 0c 06 1a 07     ................
     236:	02 02 01 04 05 04 01 03 00 01 04 04 03 03 00 04     ................
     246:	00 02 0e 04 05 03 02 04 03 02 01 02 07 03 06 04     ................
     256:	0b 04 02 03 00 03 01 01 04 03 08 04 06 03 09 04     ................
     266:	0d 04 03 04 00 00 00 00 00 00 00 00 0d 06 00 00     ................

00000276 <__ctors_end>:
     276:	11 24       	eor	r1, r1
     278:	1f be       	out	0x3f, r1	; 63
     27a:	cf ef       	ldi	r28, 0xFF	; 255
     27c:	d4 e0       	ldi	r29, 0x04	; 4
     27e:	de bf       	out	0x3e, r29	; 62
     280:	cd bf       	out	0x3d, r28	; 61

00000282 <__do_copy_data>:
     282:	11 e0       	ldi	r17, 0x01	; 1
     284:	a0 e0       	ldi	r26, 0x00	; 0
     286:	b1 e0       	ldi	r27, 0x01	; 1
     288:	ea e3       	ldi	r30, 0x3A	; 58
     28a:	fe e1       	ldi	r31, 0x1E	; 30
     28c:	02 c0       	rjmp	.+4      	; 0x292 <__do_copy_data+0x10>
     28e:	05 90       	lpm	r0, Z+
     290:	0d 92       	st	X+, r0
     292:	a2 32       	cpi	r26, 0x22	; 34
     294:	b1 07       	cpc	r27, r17
     296:	d9 f7       	brne	.-10     	; 0x28e <__do_copy_data+0xc>

00000298 <__do_clear_bss>:
     298:	22 e0       	ldi	r18, 0x02	; 2
     29a:	a2 e2       	ldi	r26, 0x22	; 34
     29c:	b1 e0       	ldi	r27, 0x01	; 1
     29e:	01 c0       	rjmp	.+2      	; 0x2a2 <.do_clear_bss_start>

000002a0 <.do_clear_bss_loop>:
     2a0:	1d 92       	st	X+, r1

000002a2 <.do_clear_bss_start>:
     2a2:	ae 3f       	cpi	r26, 0xFE	; 254
     2a4:	b2 07       	cpc	r27, r18
     2a6:	e1 f7       	brne	.-8      	; 0x2a0 <.do_clear_bss_loop>
     2a8:	b8 d0       	rcall	.+368    	; 0x41a <main>
     2aa:	0c 94 1b 0f 	jmp	0x1e36	; 0x1e36 <_exit>

000002ae <__bad_interrupt>:
     2ae:	a8 ce       	rjmp	.-688    	; 0x0 <__vectors>

000002b0 <__vector_1>:

void usb_puts(unsigned char x);


ISR(INT0_vect)
{	
     2b0:	1f 92       	push	r1
     2b2:	0f 92       	push	r0
     2b4:	0f b6       	in	r0, 0x3f	; 63
     2b6:	0f 92       	push	r0
     2b8:	11 24       	eor	r1, r1

} //Int is no longer requiered as the Statemachine will handle this.....
     2ba:	0f 90       	pop	r0
     2bc:	0f be       	out	0x3f, r0	; 63
     2be:	0f 90       	pop	r0
     2c0:	1f 90       	pop	r1
     2c2:	18 95       	reti

000002c4 <__vector_2>:

ISR(INT1_vect)
{	
     2c4:	1f 92       	push	r1
     2c6:	0f 92       	push	r0
     2c8:	0f b6       	in	r0, 0x3f	; 63
     2ca:	0f 92       	push	r0
     2cc:	11 24       	eor	r1, r1

} //Int is no longer requiered as the Statemachine will handle this.....
     2ce:	0f 90       	pop	r0
     2d0:	0f be       	out	0x3f, r0	; 63
     2d2:	0f 90       	pop	r0
     2d4:	1f 90       	pop	r1
     2d6:	18 95       	reti

000002d8 <SetupHardware>:

/** Configures the board hardware and chip peripherals for the demo's functionality. */
void SetupHardware(void)
{
	/* Disable watchdog if enabled by bootloader/fuses */
	MCUSR &= ~(1 << WDRF);
     2d8:	84 b7       	in	r24, 0x34	; 52
     2da:	87 7f       	andi	r24, 0xF7	; 247
     2dc:	84 bf       	out	0x34, r24	; 52
		);
	}
	else
	{
        uint8_t register temp_reg;
		__asm__ __volatile__ (
     2de:	0f b6       	in	r0, 0x3f	; 63
     2e0:	f8 94       	cli
     2e2:	a8 95       	wdr
     2e4:	80 91 60 00 	lds	r24, 0x0060	; 0x800060 <__EEPROM_REGION_LENGTH__+0x7f0060>
     2e8:	88 61       	ori	r24, 0x18	; 24
     2ea:	80 93 60 00 	sts	0x0060, r24	; 0x800060 <__EEPROM_REGION_LENGTH__+0x7f0060>
     2ee:	10 92 60 00 	sts	0x0060, r1	; 0x800060 <__EEPROM_REGION_LENGTH__+0x7f0060>
     2f2:	0f be       	out	0x3f, r0	; 63
from 1 to 129. Thus, one does not need to use \c clock_div_t type as argument.
*/
void clock_prescale_set(clock_div_t __x)
{
    uint8_t __tmp = _BV(CLKPCE);
    __asm__ __volatile__ (
     2f4:	90 e8       	ldi	r25, 0x80	; 128
     2f6:	80 e0       	ldi	r24, 0x00	; 0
     2f8:	0f b6       	in	r0, 0x3f	; 63
     2fa:	f8 94       	cli
     2fc:	90 93 61 00 	sts	0x0061, r25	; 0x800061 <__EEPROM_REGION_LENGTH__+0x7f0061>
     300:	80 93 61 00 	sts	0x0061, r24	; 0x800061 <__EEPROM_REGION_LENGTH__+0x7f0061>
     304:	0f be       	out	0x3f, r0	; 63

	/* Disable clock division */
	clock_prescale_set(clock_div_1);
	
	//Setup der IO
	KEYOUTPUTHIGH;
     306:	8b b1       	in	r24, 0x0b	; 11
     308:	8f 79       	andi	r24, 0x9F	; 159
     30a:	8b b9       	out	0x0b, r24	; 11
	KEYDDR |= KEY1 | KEY2;
     30c:	8a b1       	in	r24, 0x0a	; 10
     30e:	80 66       	ori	r24, 0x60	; 96
     310:	8a b9       	out	0x0a, r24	; 10
	
	PADDLEDDR &= ~(PADDLE1 | PADDLE2);
     312:	8a b1       	in	r24, 0x0a	; 10
     314:	8c 7f       	andi	r24, 0xFC	; 252
     316:	8a b9       	out	0x0a, r24	; 10
	PADDLEPORT |= PADDLE1 | PADDLE2;
     318:	8b b1       	in	r24, 0x0b	; 11
     31a:	83 60       	ori	r24, 0x03	; 3
     31c:	8b b9       	out	0x0b, r24	; 11
	
	TIMECOUNTERDDR |= TIMECOUNTERPIN1;
     31e:	20 9a       	sbi	0x04, 0	; 4
	TIMECOUNTERPORT |= TIMECOUNTERPIN1;
     320:	28 9a       	sbi	0x05, 0	; 5
	// Lowlevel von INT0 und INT1 erzeugen INT
	//EICRA &= ~((1<<ISC00) | (1<<ISC01) | (1<<ISC10) | (1<<ISC11));
	//EIMSK |= (1<<INT0) | (1<<INT1);	// Enable interrupts
	//Change Clock to XTAL
	//
	MCUCR &= ~(1<<PUD);
     322:	85 b7       	in	r24, 0x35	; 53
     324:	8f 7e       	andi	r24, 0xEF	; 239
     326:	85 bf       	out	0x35, r24	; 53
	CLKSEL0 |= (1<<EXTE) | (1<<CLKS); // Diese Zeile schaltet die externe Taktquelle in und wählt sie als CPU-Takt
     328:	e0 ed       	ldi	r30, 0xD0	; 208
     32a:	f0 e0       	ldi	r31, 0x00	; 0
     32c:	80 81       	ld	r24, Z
     32e:	85 60       	ori	r24, 0x05	; 5
     330:	80 83       	st	Z, r24
	CLKPR = (1<<CLKPCE);  // Prescaler-Change aktivieren
     332:	e1 e6       	ldi	r30, 0x61	; 97
     334:	f0 e0       	ldi	r31, 0x00	; 0
     336:	90 83       	st	Z, r25
	CLKPR = 0;			  // Prescaler Teilefaktor 1
     338:	10 82       	st	Z, r1

	//TCCR0A |= (1<<WGM01); // Timer im CTC-Mode
	//TCCR0B |= (1<<FOC0A) | (1<<CS01); // Compare output A aktivieren, 64er Teiler
	//OCR0A = 100; // Hier gibts nen Compare-Match Interrupt
	//TIMSK0 |= (1<<OCIE0A); // Capture Interrupt enable Timer 0 Capture A
	SREG |= (0b10000000); // Global Interrupt enable
     33a:	8f b7       	in	r24, 0x3f	; 63
     33c:	80 68       	ori	r24, 0x80	; 128
     33e:	8f bf       	out	0x3f, r24	; 63
	
	/* Hardware Initialization */
	USB_Init();
     340:	0c 94 3f 0c 	jmp	0x187e	; 0x187e <USB_Init>

00000344 <long_delay>:
}

void long_delay(uint16_t ms) 
{
	for(; ms>0; ms--) 
     344:	00 97       	sbiw	r24, 0x00	; 0
     346:	41 f0       	breq	.+16     	; 0x358 <long_delay+0x14>
	#else
		//round up by default
		__ticks_dc = (uint32_t)(ceil(fabs(__tmp)));
	#endif

	__builtin_avr_delay_cycles(__ticks_dc);
     348:	ef ec       	ldi	r30, 0xCF	; 207
     34a:	f7 e0       	ldi	r31, 0x07	; 7
     34c:	31 97       	sbiw	r30, 0x01	; 1
     34e:	f1 f7       	brne	.-4      	; 0x34c <long_delay+0x8>
     350:	00 c0       	rjmp	.+0      	; 0x352 <long_delay+0xe>
     352:	00 00       	nop
     354:	01 97       	sbiw	r24, 0x01	; 1
     356:	f6 cf       	rjmp	.-20     	; 0x344 <long_delay>
		_delay_ms(1);
}
     358:	08 95       	ret

0000035a <sende_uart_puffer>:
			sende_uart_puffer(&MorseEchotoUSB_Buffer);	// UART-Puffer senden, Morsezeichen-Feedback
	}
}

void sende_uart_puffer(fifo_t* buffer)
{
     35a:	0f 93       	push	r16
     35c:	1f 93       	push	r17
     35e:	cf 93       	push	r28
     360:	df 93       	push	r29
     362:	00 d0       	rcall	.+0      	; 0x364 <sende_uart_puffer+0xa>
     364:	cd b7       	in	r28, 0x3d	; 61
     366:	de b7       	in	r29, 0x3e	; 62
     368:	8c 01       	movw	r16, r24
	volatile uint8_t BufferCount;
	volatile uint8_t BufferSize = (CDC_TXRX_EPSIZE - 1);
     36a:	8f e0       	ldi	r24, 0x0F	; 15
     36c:	89 83       	std	Y+1, r24	; 0x01
	//uint16_t BufferCount = RingBuffer_GetCount(&USARTtoUSB_Buffer);
	while ((BufferCount = fifo_get_item_count(buffer)))
     36e:	c8 01       	movw	r24, r16
     370:	12 d1       	rcall	.+548    	; 0x596 <fifo_get_item_count>
     372:	8a 83       	std	Y+2, r24	; 0x02
     374:	88 23       	and	r24, r24
     376:	31 f1       	breq	.+76     	; 0x3c4 <sende_uart_puffer+0x6a>
			 */
			static inline void Endpoint_SelectEndpoint(const uint8_t Address) ATTR_ALWAYS_INLINE;
			static inline void Endpoint_SelectEndpoint(const uint8_t Address)
			{
				#if !defined(CONTROL_ONLY_DEVICE)
					UENUM = (Address & ENDPOINT_EPNUM_MASK);
     378:	80 91 01 01 	lds	r24, 0x0101	; 0x800101 <VirtualSerial_CDC_Interface+0x1>
     37c:	8f 70       	andi	r24, 0x0F	; 15
     37e:	80 93 e9 00 	sts	0x00E9, r24	; 0x8000e9 <__EEPROM_REGION_LENGTH__+0x7f00e9>
			 *  \return Boolean \c true if the current endpoint is ready for an IN packet, \c false otherwise.
			 */
			static inline bool Endpoint_IsINReady(void) ATTR_WARN_UNUSED_RESULT ATTR_ALWAYS_INLINE;
			static inline bool Endpoint_IsINReady(void)
			{
				return ((UEINTX & (1 << TXINI)) ? true : false);
     382:	80 91 e8 00 	lds	r24, 0x00E8	; 0x8000e8 <__EEPROM_REGION_LENGTH__+0x7f00e8>
	{
		Endpoint_SelectEndpoint(VirtualSerial_CDC_Interface.Config.DataINEndpoint.Address);
		if (Endpoint_IsINReady())
     386:	80 ff       	sbrs	r24, 0
     388:	f2 cf       	rjmp	.-28     	; 0x36e <sende_uart_puffer+0x14>
		{
			/* Never send more than one bank size less one byte to the host at a time, so that we don't block
				* while a Zero Length Packet (ZLP) to terminate the transfer is sent if the host isn't listening */
			//uint8_t BytesToSend = MIN(BufferCount, (CDC_TXRX_EPSIZE - 1)); //MIN seems broken dont't know why yet
			if(BufferCount>BufferSize)
     38a:	9a 81       	ldd	r25, Y+2	; 0x02
     38c:	89 81       	ldd	r24, Y+1	; 0x01
     38e:	89 17       	cp	r24, r25
     390:	90 f4       	brcc	.+36     	; 0x3b6 <sende_uart_puffer+0x5c>
			{
				BufferCount=BufferSize;
     392:	89 81       	ldd	r24, Y+1	; 0x01
     394:	8a 83       	std	Y+2, r24	; 0x02
     396:	0f c0       	rjmp	.+30     	; 0x3b6 <sende_uart_puffer+0x5c>
			}
			
			/* Read bytes from the USART receive buffer into the USB IN endpoint */
			while (BufferCount--)
			{
				uint8_t tx_byte=fifo_peek_nowait(buffer);
     398:	c8 01       	movw	r24, r16
     39a:	05 d1       	rcall	.+522    	; 0x5a6 <fifo_peek_nowait>
				/* Try to send the next byte of data to the host, abort if there is an error without dequeuing */
				if (CDC_Device_SendByte(&VirtualSerial_CDC_Interface,tx_byte ) != ENDPOINT_READYWAIT_NoError)
     39c:	68 2f       	mov	r22, r24
     39e:	80 e0       	ldi	r24, 0x00	; 0
     3a0:	91 e0       	ldi	r25, 0x01	; 1
     3a2:	77 d7       	rcall	.+3822   	; 0x1292 <CDC_Device_SendByte>
     3a4:	81 11       	cpse	r24, r1
     3a6:	e3 cf       	rjmp	.-58     	; 0x36e <sende_uart_puffer+0x14>
				{
					break;
				}
				/* Dequeue the already sent byte from the buffer now we have confirmed that no transmission error occurred */
				uint8_t txed_byte=fifo_get_nowait(buffer);
     3a8:	c8 01       	movw	r24, r16
     3aa:	eb d0       	rcall	.+470    	; 0x582 <fifo_get_nowait>
				long_delay(msCharSendtime); //We need to emulate the TX Rate of a real uart :-(
     3ac:	80 91 22 01 	lds	r24, 0x0122	; 0x800122 <__data_end>
     3b0:	90 91 23 01 	lds	r25, 0x0123	; 0x800123 <__data_end+0x1>
     3b4:	c7 df       	rcall	.-114    	; 0x344 <long_delay>
			{
				BufferCount=BufferSize;
			}
			
			/* Read bytes from the USART receive buffer into the USB IN endpoint */
			while (BufferCount--)
     3b6:	8a 81       	ldd	r24, Y+2	; 0x02
     3b8:	9f ef       	ldi	r25, 0xFF	; 255
     3ba:	98 0f       	add	r25, r24
     3bc:	9a 83       	std	Y+2, r25	; 0x02
     3be:	81 11       	cpse	r24, r1
     3c0:	eb cf       	rjmp	.-42     	; 0x398 <sende_uart_puffer+0x3e>
     3c2:	d5 cf       	rjmp	.-86     	; 0x36e <sende_uart_puffer+0x14>
				uint8_t txed_byte=fifo_get_nowait(buffer);
				long_delay(msCharSendtime); //We need to emulate the TX Rate of a real uart :-(
			}
		}
	}
}
     3c4:	0f 90       	pop	r0
     3c6:	0f 90       	pop	r0
     3c8:	df 91       	pop	r29
     3ca:	cf 91       	pop	r28
     3cc:	1f 91       	pop	r17
     3ce:	0f 91       	pop	r16
     3d0:	08 95       	ret

000003d2 <usb_puts>:

void usb_puts(unsigned char x)
{
     3d2:	cf 93       	push	r28
     3d4:	df 93       	push	r29
     3d6:	00 d0       	rcall	.+0      	; 0x3d8 <usb_puts+0x6>
     3d8:	cd b7       	in	r28, 0x3d	; 61
     3da:	de b7       	in	r29, 0x3e	; 62
	volatile uint8_t BufferCount;
	volatile uint8_t BufferSize = (CDC_TXRX_EPSIZE - 1);
     3dc:	9f e0       	ldi	r25, 0x0F	; 15
     3de:	99 83       	std	Y+1, r25	; 0x01
			 */
			static inline void Endpoint_SelectEndpoint(const uint8_t Address) ATTR_ALWAYS_INLINE;
			static inline void Endpoint_SelectEndpoint(const uint8_t Address)
			{
				#if !defined(CONTROL_ONLY_DEVICE)
					UENUM = (Address & ENDPOINT_EPNUM_MASK);
     3e0:	90 91 01 01 	lds	r25, 0x0101	; 0x800101 <VirtualSerial_CDC_Interface+0x1>
     3e4:	9f 70       	andi	r25, 0x0F	; 15
     3e6:	90 93 e9 00 	sts	0x00E9, r25	; 0x8000e9 <__EEPROM_REGION_LENGTH__+0x7f00e9>
			 *  \return Boolean \c true if the current endpoint is ready for an IN packet, \c false otherwise.
			 */
			static inline bool Endpoint_IsINReady(void) ATTR_WARN_UNUSED_RESULT ATTR_ALWAYS_INLINE;
			static inline bool Endpoint_IsINReady(void)
			{
				return ((UEINTX & (1 << TXINI)) ? true : false);
     3ea:	90 91 e8 00 	lds	r25, 0x00E8	; 0x8000e8 <__EEPROM_REGION_LENGTH__+0x7f00e8>
	//uint16_t BufferCount = RingBuffer_GetCount(&USARTtoUSB_Buffer);
	Endpoint_SelectEndpoint(VirtualSerial_CDC_Interface.Config.DataINEndpoint.Address);
	if (Endpoint_IsINReady())
     3ee:	90 ff       	sbrs	r25, 0
     3f0:	0f c0       	rjmp	.+30     	; 0x410 <__LOCK_REGION_LENGTH__+0x10>
	{
		/* Never send more than one bank size less one byte to the host at a time, so that we don't block
			* while a Zero Length Packet (ZLP) to terminate the transfer is sent if the host isn't listening */
		//uint8_t BytesToSend = MIN(BufferCount, (CDC_TXRX_EPSIZE - 1)); //MIN seems broken dont't know why yet
		if(BufferCount>BufferSize)
     3f2:	2a 81       	ldd	r18, Y+2	; 0x02
     3f4:	99 81       	ldd	r25, Y+1	; 0x01
     3f6:	92 17       	cp	r25, r18
     3f8:	10 f4       	brcc	.+4      	; 0x3fe <usb_puts+0x2c>
		{
			BufferCount=BufferSize;
     3fa:	99 81       	ldd	r25, Y+1	; 0x01
     3fc:	9a 83       	std	Y+2, r25	; 0x02
     3fe:	68 2f       	mov	r22, r24
		}
			
		/* Read bytes from the USART receive buffer into the USB IN endpoint */
			
			/* Try to send the next byte of data to the host, abort if there is an error without dequeuing */
			if (CDC_Device_SendByte(&VirtualSerial_CDC_Interface,x ) != ENDPOINT_READYWAIT_NoError)
     400:	80 e0       	ldi	r24, 0x00	; 0
     402:	91 e0       	ldi	r25, 0x01	; 1
     404:	46 d7       	rcall	.+3724   	; 0x1292 <CDC_Device_SendByte>
			{
				
			}
			/* Dequeue the already sent byte from the buffer now we have confirmed that no transmission error occurred */
			long_delay(msCharSendtime); //We need to emulate the TX Rate of a rea uart :-(
     406:	80 91 22 01 	lds	r24, 0x0122	; 0x800122 <__data_end>
     40a:	90 91 23 01 	lds	r25, 0x0123	; 0x800123 <__data_end+0x1>
     40e:	9a df       	rcall	.-204    	; 0x344 <long_delay>
		
	}
	
}
     410:	0f 90       	pop	r0
     412:	0f 90       	pop	r0
     414:	df 91       	pop	r29
     416:	cf 91       	pop	r28
     418:	08 95       	ret

0000041a <main>:
int main(void)
{
	uint8_t freecounter=0;
	int16_t ReceivedByte;
	
	long_delay(200);
     41a:	88 ec       	ldi	r24, 0xC8	; 200
     41c:	90 e0       	ldi	r25, 0x00	; 0
     41e:	92 df       	rcall	.-220    	; 0x344 <long_delay>
	
	SetupHardware();
     420:	5b df       	rcall	.-330    	; 0x2d8 <SetupHardware>
	
	//SetupFSM();
	
	fifo_init(&USARTtoUSB_Buffer, USARTtoUSB_Buffer_Data, sizeof(USARTtoUSB_Buffer_Data));
     422:	40 e8       	ldi	r20, 0x80	; 128
     424:	64 e5       	ldi	r22, 0x54	; 84
     426:	71 e0       	ldi	r23, 0x01	; 1
     428:	84 ed       	ldi	r24, 0xD4	; 212
     42a:	91 e0       	ldi	r25, 0x01	; 1
     42c:	71 d0       	rcall	.+226    	; 0x510 <fifo_init>
	fifo_init(&MorseEchotoUSB_Buffer, MorseEchotoUSB_Buffer_Data, sizeof(MorseEchotoUSB_Buffer_Data));
     42e:	40 e2       	ldi	r20, 0x20	; 32
     430:	6a e2       	ldi	r22, 0x2A	; 42
     432:	71 e0       	ldi	r23, 0x01	; 1
     434:	8a e4       	ldi	r24, 0x4A	; 74
     436:	91 e0       	ldi	r25, 0x01	; 1
     438:	6b d0       	rcall	.+214    	; 0x510 <fifo_init>
	
	long_delay(200);
     43a:	88 ec       	ldi	r24, 0xC8	; 200
     43c:	90 e0       	ldi	r25, 0x00	; 0
     43e:	82 df       	rcall	.-252    	; 0x344 <long_delay>
	//get_configuration();	// Werte EEPROM aus und schreibe config-bytes
	InitWinkeyDecoder();
     440:	4d d1       	rcall	.+666    	; 0x6dc <InitWinkeyDecoder>
	MorseFSM_Init(&MorseEchotoUSB_Buffer);
     442:	8a e4       	ldi	r24, 0x4A	; 74
     444:	91 e0       	ldi	r25, 0x01	; 1
     446:	f8 d2       	rcall	.+1520   	; 0xa38 <MorseFSM_Init>
	sei(); // Setze globales Interrupt-Flag
     448:	78 94       	sei
	long_delay(10);
     44a:	8a e0       	ldi	r24, 0x0A	; 10
     44c:	90 e0       	ldi	r25, 0x00	; 0
     44e:	7a df       	rcall	.-268    	; 0x344 <long_delay>
	Morse_FSM_Start();
     450:	1d d3       	rcall	.+1594   	; 0xa8c <Morse_FSM_Start>
//TX Needs to be interrupt driven


int main(void)
{
	uint8_t freecounter=0;
     452:	10 e0       	ldi	r17, 0x00	; 0
	
	while(1==1)
	{

		/* Read bytes from the USB OUT endpoint into the USART transmit buffer */
			ReceivedByte = CDC_Device_ReceiveByte(&VirtualSerial_CDC_Interface);
     454:	80 e0       	ldi	r24, 0x00	; 0
     456:	91 e0       	ldi	r25, 0x01	; 1
     458:	84 d7       	rcall	.+3848   	; 0x1362 <CDC_Device_ReceiveByte>
			if(ReceivedByte>-1)	{
     45a:	97 fd       	sbrc	r25, 7
     45c:	0f c0       	rjmp	.+30     	; 0x47c <main+0x62>
				switch(Decoder((uint8_t)(ReceivedByte),&USARTtoUSB_Buffer))
     45e:	64 ed       	ldi	r22, 0xD4	; 212
     460:	71 e0       	ldi	r23, 0x01	; 1
     462:	6f d1       	rcall	.+734    	; 0x742 <Decoder>
     464:	81 30       	cpi	r24, 0x01	; 1
     466:	51 f4       	brne	.+20     	; 0x47c <main+0x62>
     468:	c0 e0       	ldi	r28, 0x00	; 0
     46a:	d0 e0       	ldi	r29, 0x00	; 0
					case DUMP_EEPROM_CONFIG:
					{
						//Okay we now need to send our EEPROM Back
						for(uint16_t i=0;i<256;i++)
						{
							usb_puts(WinkeyEEPROMread(i));	
     46c:	ce 01       	movw	r24, r28
     46e:	bd d0       	rcall	.+378    	; 0x5ea <WinkeyEEPROMread>
     470:	b0 df       	rcall	.-160    	; 0x3d2 <usb_puts>
				switch(Decoder((uint8_t)(ReceivedByte),&USARTtoUSB_Buffer))
				{
					case DUMP_EEPROM_CONFIG:
					{
						//Okay we now need to send our EEPROM Back
						for(uint16_t i=0;i<256;i++)
     472:	21 96       	adiw	r28, 0x01	; 1
     474:	c1 15       	cp	r28, r1
     476:	81 e0       	ldi	r24, 0x01	; 1
     478:	d8 07       	cpc	r29, r24
     47a:	c1 f7       	brne	.-16     	; 0x46c <main+0x52>
				}
				//Okay we may have to do some post_processing
				
			}
			//Every 16th run doing other tasks...
			if((freecounter&0x1F)==0x10){
     47c:	81 2f       	mov	r24, r17
     47e:	8f 71       	andi	r24, 0x1F	; 31
     480:	80 31       	cpi	r24, 0x10	; 16
     482:	29 f4       	brne	.+10     	; 0x48e <main+0x74>
				CDC_Device_USBTask(&VirtualSerial_CDC_Interface);
     484:	80 e0       	ldi	r24, 0x00	; 0
     486:	91 e0       	ldi	r25, 0x01	; 1
     488:	57 d7       	rcall	.+3758   	; 0x1338 <CDC_Device_USBTask>
				USB_USBTask();
     48a:	0e 94 80 0e 	call	0x1d00	; 0x1d00 <USB_USBTask>
				
			}
			freecounter++; //Counts the current run....
     48e:	1f 5f       	subi	r17, 0xFF	; 255
			sende_uart_puffer(&USARTtoUSB_Buffer);	// UART-Puffer senden, Morsezeichen-Feedback
     490:	84 ed       	ldi	r24, 0xD4	; 212
     492:	91 e0       	ldi	r25, 0x01	; 1
     494:	62 df       	rcall	.-316    	; 0x35a <sende_uart_puffer>
			sende_uart_puffer(&MorseEchotoUSB_Buffer);	// UART-Puffer senden, Morsezeichen-Feedback
     496:	8a e4       	ldi	r24, 0x4A	; 74
     498:	91 e0       	ldi	r25, 0x01	; 1
     49a:	5f df       	rcall	.-322    	; 0x35a <sende_uart_puffer>
	}
     49c:	db cf       	rjmp	.-74     	; 0x454 <main+0x3a>

0000049e <EVENT_USB_Device_ConfigurationChanged>:

/** Event handler for the library USB Configuration Changed event. */
void EVENT_USB_Device_ConfigurationChanged(void)
{
	bool ConfigSuccess = true;
	ConfigSuccess &= CDC_Device_ConfigureEndpoints(&VirtualSerial_CDC_Interface);
     49e:	80 e0       	ldi	r24, 0x00	; 0
     4a0:	91 e0       	ldi	r25, 0x01	; 1
     4a2:	d2 c6       	rjmp	.+3492   	; 0x1248 <CDC_Device_ConfigureEndpoints>

000004a4 <EVENT_USB_Device_ControlRequest>:
}

/** Event handler for the library USB Control Request reception event. */
void EVENT_USB_Device_ControlRequest(void)
{
	CDC_Device_ProcessControlRequest(&VirtualSerial_CDC_Interface);
     4a4:	80 e0       	ldi	r24, 0x00	; 0
     4a6:	91 e0       	ldi	r25, 0x01	; 1
     4a8:	89 c7       	rjmp	.+3858   	; 0x13bc <CDC_Device_ProcessControlRequest>

000004aa <EVENT_CDC_Device_LineEncodingChanged>:
		case 8:
			ConfigMask |= ((1 << UCSZ11) | (1 << UCSZ10));
			break;
	}
	
	Emulatedbaurate=CDCInterfaceInfo->State.LineEncoding.BaudRateBPS;
     4aa:	fc 01       	movw	r30, r24
     4ac:	24 89       	ldd	r18, Z+20	; 0x14
     4ae:	35 89       	ldd	r19, Z+21	; 0x15
     4b0:	46 89       	ldd	r20, Z+22	; 0x16
     4b2:	57 89       	ldd	r21, Z+23	; 0x17
     4b4:	20 93 26 01 	sts	0x0126, r18	; 0x800126 <Emulatedbaurate>
     4b8:	30 93 27 01 	sts	0x0127, r19	; 0x800127 <Emulatedbaurate+0x1>
     4bc:	40 93 28 01 	sts	0x0128, r20	; 0x800128 <Emulatedbaurate+0x2>
     4c0:	50 93 29 01 	sts	0x0129, r21	; 0x800129 <Emulatedbaurate+0x3>
	msCharSendtime=(uint32_t)(10000)/Emulatedbaurate;
     4c4:	60 e1       	ldi	r22, 0x10	; 16
     4c6:	77 e2       	ldi	r23, 0x27	; 39
     4c8:	80 e0       	ldi	r24, 0x00	; 0
     4ca:	90 e0       	ldi	r25, 0x00	; 0
     4cc:	0e 94 ac 0e 	call	0x1d58	; 0x1d58 <__udivmodsi4>
     4d0:	20 93 22 01 	sts	0x0122, r18	; 0x800122 <__data_end>
     4d4:	30 93 23 01 	sts	0x0123, r19	; 0x800123 <__data_end+0x1>
     4d8:	40 93 24 01 	sts	0x0124, r20	; 0x800124 <__data_end+0x2>
     4dc:	50 93 25 01 	sts	0x0125, r21	; 0x800125 <__data_end+0x3>
     4e0:	08 95       	ret

000004e2 <_inline_fifo_get>:

uint8_t fifo_get_wait (fifo_t *f)
{
	while (!f->count);
	
	return _inline_fifo_get (f);	
     4e2:	fc 01       	movw	r30, r24
     4e4:	a4 81       	ldd	r26, Z+4	; 0x04
     4e6:	b5 81       	ldd	r27, Z+5	; 0x05
     4e8:	9d 01       	movw	r18, r26
     4ea:	2f 5f       	subi	r18, 0xFF	; 255
     4ec:	3f 4f       	sbci	r19, 0xFF	; 255
     4ee:	8c 91       	ld	r24, X
     4f0:	90 85       	ldd	r25, Z+8	; 0x08
     4f2:	91 50       	subi	r25, 0x01	; 1
     4f4:	19 f4       	brne	.+6      	; 0x4fc <_inline_fifo_get+0x1a>
     4f6:	93 81       	ldd	r25, Z+3	; 0x03
     4f8:	29 1b       	sub	r18, r25
     4fa:	31 09       	sbc	r19, r1
     4fc:	35 83       	std	Z+5, r19	; 0x05
     4fe:	24 83       	std	Z+4, r18	; 0x04
     500:	90 87       	std	Z+8, r25	; 0x08
     502:	2f b7       	in	r18, 0x3f	; 63
     504:	f8 94       	cli
     506:	92 81       	ldd	r25, Z+2	; 0x02
     508:	91 50       	subi	r25, 0x01	; 1
     50a:	92 83       	std	Z+2, r25	; 0x02
     50c:	2f bf       	out	0x3f, r18	; 63
     50e:	08 95       	ret

00000510 <fifo_init>:
     510:	fc 01       	movw	r30, r24
     512:	71 83       	std	Z+1, r23	; 0x01
     514:	60 83       	st	Z, r22
     516:	12 82       	std	Z+2, r1	; 0x02
     518:	77 83       	std	Z+7, r23	; 0x07
     51a:	66 83       	std	Z+6, r22	; 0x06
     51c:	75 83       	std	Z+5, r23	; 0x05
     51e:	64 83       	std	Z+4, r22	; 0x04
     520:	43 83       	std	Z+3, r20	; 0x03
     522:	41 87       	std	Z+9, r20	; 0x09
     524:	40 87       	std	Z+8, r20	; 0x08
     526:	08 95       	ret

00000528 <fifo_reset>:
     528:	fc 01       	movw	r30, r24
     52a:	2f b7       	in	r18, 0x3f	; 63
     52c:	f8 94       	cli
     52e:	12 82       	std	Z+2, r1	; 0x02
     530:	80 81       	ld	r24, Z
     532:	91 81       	ldd	r25, Z+1	; 0x01
     534:	97 83       	std	Z+7, r25	; 0x07
     536:	86 83       	std	Z+6, r24	; 0x06
     538:	95 83       	std	Z+5, r25	; 0x05
     53a:	84 83       	std	Z+4, r24	; 0x04
     53c:	83 81       	ldd	r24, Z+3	; 0x03
     53e:	81 87       	std	Z+9, r24	; 0x09
     540:	80 87       	std	Z+8, r24	; 0x08
     542:	2f bf       	out	0x3f, r18	; 63
     544:	08 95       	ret

00000546 <fifo_put>:
     546:	fc 01       	movw	r30, r24
     548:	92 81       	ldd	r25, Z+2	; 0x02
     54a:	83 81       	ldd	r24, Z+3	; 0x03
     54c:	98 17       	cp	r25, r24
     54e:	b8 f4       	brcc	.+46     	; 0x57e <fifo_put+0x38>
     550:	a6 81       	ldd	r26, Z+6	; 0x06
     552:	b7 81       	ldd	r27, Z+7	; 0x07
     554:	9d 01       	movw	r18, r26
     556:	2f 5f       	subi	r18, 0xFF	; 255
     558:	3f 4f       	sbci	r19, 0xFF	; 255
     55a:	6c 93       	st	X, r22
     55c:	81 85       	ldd	r24, Z+9	; 0x09
     55e:	81 50       	subi	r24, 0x01	; 1
     560:	19 f4       	brne	.+6      	; 0x568 <fifo_put+0x22>
     562:	83 81       	ldd	r24, Z+3	; 0x03
     564:	28 1b       	sub	r18, r24
     566:	31 09       	sbc	r19, r1
     568:	81 87       	std	Z+9, r24	; 0x09
     56a:	37 83       	std	Z+7, r19	; 0x07
     56c:	26 83       	std	Z+6, r18	; 0x06
     56e:	9f b7       	in	r25, 0x3f	; 63
     570:	f8 94       	cli
     572:	82 81       	ldd	r24, Z+2	; 0x02
     574:	8f 5f       	subi	r24, 0xFF	; 255
     576:	82 83       	std	Z+2, r24	; 0x02
     578:	9f bf       	out	0x3f, r25	; 63
     57a:	81 e0       	ldi	r24, 0x01	; 1
     57c:	08 95       	ret
     57e:	80 e0       	ldi	r24, 0x00	; 0
     580:	08 95       	ret

00000582 <fifo_get_nowait>:
}

int fifo_get_nowait (fifo_t *f)
{
	if (!f->count)		return -1;
     582:	fc 01       	movw	r30, r24
     584:	22 81       	ldd	r18, Z+2	; 0x02
     586:	22 23       	and	r18, r18
     588:	19 f0       	breq	.+6      	; 0x590 <fifo_get_nowait+0xe>
		
	return (int) _inline_fifo_get (f);	
     58a:	ab df       	rcall	.-170    	; 0x4e2 <_inline_fifo_get>
     58c:	90 e0       	ldi	r25, 0x00	; 0
     58e:	08 95       	ret
	return _inline_fifo_get (f);	
}

int fifo_get_nowait (fifo_t *f)
{
	if (!f->count)		return -1;
     590:	8f ef       	ldi	r24, 0xFF	; 255
     592:	9f ef       	ldi	r25, 0xFF	; 255
		
	return (int) _inline_fifo_get (f);	
}
     594:	08 95       	ret

00000596 <fifo_get_item_count>:

uint8_t fifo_get_item_count(fifo_t *f)
{
	return f->count; 
     596:	fc 01       	movw	r30, r24
     598:	82 81       	ldd	r24, Z+2	; 0x02
}
     59a:	08 95       	ret

0000059c <fifo_get_free_count>:

uint8_t fifo_get_free_count(fifo_t *f)
{
	return ((f->size)-(f->count));
     59c:	fc 01       	movw	r30, r24
     59e:	22 81       	ldd	r18, Z+2	; 0x02
     5a0:	83 81       	ldd	r24, Z+3	; 0x03
}
     5a2:	82 1b       	sub	r24, r18
     5a4:	08 95       	ret

000005a6 <fifo_peek_nowait>:


int fifo_peek_nowait(fifo_t *f)
{
	if(f->count<=0)
     5a6:	dc 01       	movw	r26, r24
     5a8:	12 96       	adiw	r26, 0x02	; 2
     5aa:	2c 91       	ld	r18, X
     5ac:	12 97       	sbiw	r26, 0x02	; 2
     5ae:	22 23       	and	r18, r18
     5b0:	39 f0       	breq	.+14     	; 0x5c0 <fifo_peek_nowait+0x1a>
	{
		return -1;
	}
	uint8_t *pread = f->pread;
	uint8_t data = *(pread);
     5b2:	14 96       	adiw	r26, 0x04	; 4
     5b4:	ed 91       	ld	r30, X+
     5b6:	fc 91       	ld	r31, X
     5b8:	15 97       	sbiw	r26, 0x05	; 5
	return data;
     5ba:	80 81       	ld	r24, Z
     5bc:	90 e0       	ldi	r25, 0x00	; 0
     5be:	08 95       	ret

int fifo_peek_nowait(fifo_t *f)
{
	if(f->count<=0)
	{
		return -1;
     5c0:	8f ef       	ldi	r24, 0xFF	; 255
     5c2:	9f ef       	ldi	r25, 0xFF	; 255
	}
	uint8_t *pread = f->pread;
	uint8_t data = *(pread);
	return data;
     5c4:	08 95       	ret

000005c6 <_crc_ccitt_update>:
        : "=d" (__ret)
        : "r" (__data), "0" (__crc)
        : "r0"
    );
    return __ret;
}
     5c6:	86 27       	eor	r24, r22
     5c8:	08 2e       	mov	r0, r24
     5ca:	82 95       	swap	r24
     5cc:	80 7f       	andi	r24, 0xF0	; 240
     5ce:	80 25       	eor	r24, r0
     5d0:	09 2e       	mov	r0, r25
     5d2:	98 2f       	mov	r25, r24
     5d4:	82 95       	swap	r24
     5d6:	8f 70       	andi	r24, 0x0F	; 15
     5d8:	08 26       	eor	r0, r24
     5da:	86 95       	lsr	r24
     5dc:	98 27       	eor	r25, r24
     5de:	89 27       	eor	r24, r25
     5e0:	88 0f       	add	r24, r24
     5e2:	88 0f       	add	r24, r24
     5e4:	88 0f       	add	r24, r24
     5e6:	80 25       	eor	r24, r0
     5e8:	08 95       	ret

000005ea <WinkeyEEPROMread>:
//Okay we need to Emulate the EEPROM
#define Winkey_EEPROM (sizeof(WinKeyConfig_t)) //Emulates the Winkey EEPROM Startadress

uint8_t WinkeyEEPROMread(uint16_t Index)
{
	return eeprom_read_byte((const uint8_t *)(Index+Winkey_EEPROM));
     5ea:	40 96       	adiw	r24, 0x10	; 16
     5ec:	0c 94 e8 0e 	jmp	0x1dd0	; 0x1dd0 <eeprom_read_byte>

000005f0 <WinkeyEEPROMwrite>:
}

void WinkeyEEPROMwrite(uint16_t Index, uint8_t data)
{
	eeprom_update_byte((uint8_t *)(Index+Winkey_EEPROM), data);
     5f0:	40 96       	adiw	r24, 0x10	; 16
     5f2:	0c 94 f5 0e 	jmp	0x1dea	; 0x1dea <eeprom_update_byte>

000005f6 <load_configuration>:
{
	load_configuration();	
}

void load_configuration()
{
     5f6:	af 92       	push	r10
     5f8:	bf 92       	push	r11
     5fa:	cf 92       	push	r12
     5fc:	df 92       	push	r13
     5fe:	ef 92       	push	r14
     600:	ff 92       	push	r15
     602:	0f 93       	push	r16
     604:	1f 93       	push	r17
     606:	cf 93       	push	r28
     608:	df 93       	push	r29
     60a:	cd b7       	in	r28, 0x3d	; 61
     60c:	de b7       	in	r29, 0x3e	; 62
     60e:	60 97       	sbiw	r28, 0x10	; 16
     610:	0f b6       	in	r0, 0x3f	; 63
     612:	f8 94       	cli
     614:	de bf       	out	0x3e, r29	; 62
     616:	0f be       	out	0x3f, r0	; 63
     618:	cd bf       	out	0x3d, r28	; 61
	//Read Status of Config....
	WinKeyConfig_t wparam;
	uint16_t stored_crc16=eeprom_read_word((const uint16_t *)(CRC16_EEPROM_ADDR));
     61a:	8e ef       	ldi	r24, 0xFE	; 254
     61c:	93 e0       	ldi	r25, 0x03	; 3
     61e:	0e 94 f0 0e 	call	0x1de0	; 0x1de0 <eeprom_read_word>
     622:	5c 01       	movw	r10, r24
	uint8_t* ptr=(uint8_t *)(&wparam);
	uint16_t lenght=sizeof(WinKeyConfig_t);
	for(uint16_t i=0;i<lenght;i++)
     624:	00 e0       	ldi	r16, 0x00	; 0
     626:	10 e0       	ldi	r17, 0x00	; 0
void load_configuration()
{
	//Read Status of Config....
	WinKeyConfig_t wparam;
	uint16_t stored_crc16=eeprom_read_word((const uint16_t *)(CRC16_EEPROM_ADDR));
	uint8_t* ptr=(uint8_t *)(&wparam);
     628:	ce 01       	movw	r24, r28
     62a:	01 96       	adiw	r24, 0x01	; 1
     62c:	6c 01       	movw	r12, r24
     62e:	7c 01       	movw	r14, r24
	uint16_t lenght=sizeof(WinKeyConfig_t);
	for(uint16_t i=0;i<lenght;i++)
	{
		
		*ptr = eeprom_read_byte((const uint8_t *)i);
     630:	c8 01       	movw	r24, r16
     632:	0e 94 e8 0e 	call	0x1dd0	; 0x1dd0 <eeprom_read_byte>
     636:	f6 01       	movw	r30, r12
     638:	81 93       	st	Z+, r24
     63a:	6f 01       	movw	r12, r30
	//Read Status of Config....
	WinKeyConfig_t wparam;
	uint16_t stored_crc16=eeprom_read_word((const uint16_t *)(CRC16_EEPROM_ADDR));
	uint8_t* ptr=(uint8_t *)(&wparam);
	uint16_t lenght=sizeof(WinKeyConfig_t);
	for(uint16_t i=0;i<lenght;i++)
     63c:	0f 5f       	subi	r16, 0xFF	; 255
     63e:	1f 4f       	sbci	r17, 0xFF	; 255
     640:	00 31       	cpi	r16, 0x10	; 16
     642:	11 05       	cpc	r17, r1
     644:	a9 f7       	brne	.-22     	; 0x630 <load_configuration+0x3a>
     646:	8f ef       	ldi	r24, 0xFF	; 255
     648:	9f ef       	ldi	r25, 0xFF	; 255
     64a:	87 01       	movw	r16, r14
	
	//okay now we need to build a crc16-ccitt style
	//as our last 2 bytes are crc we now run to lenght-2
	uint16_t crc_calc=0xFFFF;
	ptr=(uint8_t *)(&wparam);
	for(uint16_t i=0;i<(lenght);i++)
     64c:	6e 01       	movw	r12, r28
     64e:	f1 e1       	ldi	r31, 0x11	; 17
     650:	cf 0e       	add	r12, r31
     652:	d1 1c       	adc	r13, r1
	{
		
		crc_calc = _crc_ccitt_update(crc_calc,*ptr);
     654:	f8 01       	movw	r30, r16
     656:	61 91       	ld	r22, Z+
     658:	8f 01       	movw	r16, r30
     65a:	b5 df       	rcall	.-150    	; 0x5c6 <_crc_ccitt_update>
	
	//okay now we need to build a crc16-ccitt style
	//as our last 2 bytes are crc we now run to lenght-2
	uint16_t crc_calc=0xFFFF;
	ptr=(uint8_t *)(&wparam);
	for(uint16_t i=0;i<(lenght);i++)
     65c:	0c 15       	cp	r16, r12
     65e:	1d 05       	cpc	r17, r13
     660:	c9 f7       	brne	.-14     	; 0x654 <load_configuration+0x5e>
		
		crc_calc = _crc_ccitt_update(crc_calc,*ptr);
		ptr++;
	}
	//Check if CRC matches
	if(crc_calc==stored_crc16)
     662:	8a 15       	cp	r24, r10
     664:	9b 05       	cpc	r25, r11
     666:	11 f4       	brne	.+4      	; 0x66c <load_configuration+0x76>
	{
		//Alles okay
		asm("NOP");
     668:	00 00       	nop
     66a:	25 c0       	rjmp	.+74     	; 0x6b6 <load_configuration+0xc0>
	}
	else
	{
		//Need to Build Config with default values
		
		wparam.WPM = 10;
     66c:	8a e0       	ldi	r24, 0x0A	; 10
     66e:	8b 83       	std	Y+3, r24	; 0x03
		wparam.Moderegister = 0;
     670:	1a 82       	std	Y+2, r1	; 0x02
		wparam.DitDahRatio = 50;		
     672:	82 e3       	ldi	r24, 0x32	; 50
     674:	8e 87       	std	Y+14, r24	; 0x0e
		
		//Okay now we need to Build our CRC
		ptr=(uint8_t *)(&wparam);
		crc_calc=0xFFFF;
     676:	aa 24       	eor	r10, r10
     678:	aa 94       	dec	r10
     67a:	ba 2c       	mov	r11, r10
		wparam.WPM = 10;
		wparam.Moderegister = 0;
		wparam.DitDahRatio = 50;		
		
		//Okay now we need to Build our CRC
		ptr=(uint8_t *)(&wparam);
     67c:	87 01       	movw	r16, r14
		crc_calc=0xFFFF;
		for(uint16_t i=0;i<(lenght);i++)
		{
			
			crc_calc = _crc_ccitt_update(crc_calc,*ptr);
     67e:	f8 01       	movw	r30, r16
     680:	61 91       	ld	r22, Z+
     682:	8f 01       	movw	r16, r30
     684:	c5 01       	movw	r24, r10
     686:	9f df       	rcall	.-194    	; 0x5c6 <_crc_ccitt_update>
     688:	5c 01       	movw	r10, r24
		wparam.DitDahRatio = 50;		
		
		//Okay now we need to Build our CRC
		ptr=(uint8_t *)(&wparam);
		crc_calc=0xFFFF;
		for(uint16_t i=0;i<(lenght);i++)
     68a:	0c 15       	cp	r16, r12
     68c:	1d 05       	cpc	r17, r13
     68e:	b9 f7       	brne	.-18     	; 0x67e <load_configuration+0x88>
     690:	67 01       	movw	r12, r14
     692:	00 e0       	ldi	r16, 0x00	; 0
     694:	10 e0       	ldi	r17, 0x00	; 0
		
		ptr=(uint8_t *)(&wparam);
		//And now everything must back to the EEPROM
		for(uint16_t i=0;i<lenght;i++)
		{
			eeprom_update_byte((uint8_t *)i , *ptr);
     696:	f6 01       	movw	r30, r12
     698:	61 91       	ld	r22, Z+
     69a:	6f 01       	movw	r12, r30
     69c:	c8 01       	movw	r24, r16
     69e:	0e 94 f5 0e 	call	0x1dea	; 0x1dea <eeprom_update_byte>
			ptr++;
		}
		
		ptr=(uint8_t *)(&wparam);
		//And now everything must back to the EEPROM
		for(uint16_t i=0;i<lenght;i++)
     6a2:	0f 5f       	subi	r16, 0xFF	; 255
     6a4:	1f 4f       	sbci	r17, 0xFF	; 255
     6a6:	00 31       	cpi	r16, 0x10	; 16
     6a8:	11 05       	cpc	r17, r1
     6aa:	a9 f7       	brne	.-22     	; 0x696 <load_configuration+0xa0>
		{
			eeprom_update_byte((uint8_t *)i , *ptr);
			ptr++;
		}
		eeprom_update_word((uint16_t *)CRC16_EEPROM_ADDR,crc_calc);
     6ac:	b5 01       	movw	r22, r10
     6ae:	8e ef       	ldi	r24, 0xFE	; 254
     6b0:	93 e0       	ldi	r25, 0x03	; 3
     6b2:	0e 94 07 0f 	call	0x1e0e	; 0x1e0e <eeprom_update_word>
	}

	//Send Config to FSM
	Morse_FSM_Update_Config(&wparam);
     6b6:	c7 01       	movw	r24, r14
     6b8:	ef d1       	rcall	.+990    	; 0xa98 <Morse_FSM_Update_Config>
}
     6ba:	60 96       	adiw	r28, 0x10	; 16
     6bc:	0f b6       	in	r0, 0x3f	; 63
     6be:	f8 94       	cli
     6c0:	de bf       	out	0x3e, r29	; 62
     6c2:	0f be       	out	0x3f, r0	; 63
     6c4:	cd bf       	out	0x3d, r28	; 61
     6c6:	df 91       	pop	r29
     6c8:	cf 91       	pop	r28
     6ca:	1f 91       	pop	r17
     6cc:	0f 91       	pop	r16
     6ce:	ff 90       	pop	r15
     6d0:	ef 90       	pop	r14
     6d2:	df 90       	pop	r13
     6d4:	cf 90       	pop	r12
     6d6:	bf 90       	pop	r11
     6d8:	af 90       	pop	r10
     6da:	08 95       	ret

000006dc <InitWinkeyDecoder>:
	eeprom_update_byte((uint8_t *)(Index+Winkey_EEPROM), data);
}

void InitWinkeyDecoder()
{
	load_configuration();	
     6dc:	8c cf       	rjmp	.-232    	; 0x5f6 <load_configuration>

000006de <save_configuration>:
	//Send Config to FSM
	Morse_FSM_Update_Config(&wparam);
}

void save_configuration(WinKeyConfig_t* wparam)
{
     6de:	cf 92       	push	r12
     6e0:	df 92       	push	r13
     6e2:	ef 92       	push	r14
     6e4:	ff 92       	push	r15
     6e6:	0f 93       	push	r16
     6e8:	1f 93       	push	r17
     6ea:	cf 93       	push	r28
     6ec:	df 93       	push	r29
     6ee:	ec 01       	movw	r28, r24
     6f0:	6c 01       	movw	r12, r24
     6f2:	80 e1       	ldi	r24, 0x10	; 16
     6f4:	c8 0e       	add	r12, r24
     6f6:	d1 1c       	adc	r13, r1
	//Okay now we need to Build our CRC
	uint8_t* ptr=(uint8_t *)(wparam);
     6f8:	8e 01       	movw	r16, r28
	uint16_t crc_calc=0xFFFF;
     6fa:	ee 24       	eor	r14, r14
     6fc:	ea 94       	dec	r14
     6fe:	fe 2c       	mov	r15, r14
	uint16_t lenght=sizeof(WinKeyConfig_t);
	for(uint16_t i=0;i<(lenght);i++)
	{
		
		crc_calc = _crc_ccitt_update(crc_calc,*ptr);
     700:	f8 01       	movw	r30, r16
     702:	61 91       	ld	r22, Z+
     704:	8f 01       	movw	r16, r30
     706:	c7 01       	movw	r24, r14
     708:	5e df       	rcall	.-324    	; 0x5c6 <_crc_ccitt_update>
     70a:	7c 01       	movw	r14, r24
{
	//Okay now we need to Build our CRC
	uint8_t* ptr=(uint8_t *)(wparam);
	uint16_t crc_calc=0xFFFF;
	uint16_t lenght=sizeof(WinKeyConfig_t);
	for(uint16_t i=0;i<(lenght);i++)
     70c:	0c 15       	cp	r16, r12
     70e:	1d 05       	cpc	r17, r13
     710:	b9 f7       	brne	.-18     	; 0x700 <save_configuration+0x22>
     712:	00 e0       	ldi	r16, 0x00	; 0
     714:	10 e0       	ldi	r17, 0x00	; 0
	
	ptr=(uint8_t *)(wparam);
	//And now everything must back to the EEPROM
	for(uint16_t i=0;i<lenght;i++)
	{
		eeprom_update_byte((uint8_t *)i , *ptr);
     716:	69 91       	ld	r22, Y+
     718:	c8 01       	movw	r24, r16
     71a:	0e 94 f5 0e 	call	0x1dea	; 0x1dea <eeprom_update_byte>
		ptr++;
	}
	
	ptr=(uint8_t *)(wparam);
	//And now everything must back to the EEPROM
	for(uint16_t i=0;i<lenght;i++)
     71e:	0f 5f       	subi	r16, 0xFF	; 255
     720:	1f 4f       	sbci	r17, 0xFF	; 255
     722:	00 31       	cpi	r16, 0x10	; 16
     724:	11 05       	cpc	r17, r1
     726:	b9 f7       	brne	.-18     	; 0x716 <save_configuration+0x38>
	{
		eeprom_update_byte((uint8_t *)i , *ptr);
		ptr++;
	}
	eeprom_update_word((uint16_t *)CRC16_EEPROM_ADDR,crc_calc);
     728:	b7 01       	movw	r22, r14
     72a:	8e ef       	ldi	r24, 0xFE	; 254
     72c:	93 e0       	ldi	r25, 0x03	; 3
};
     72e:	df 91       	pop	r29
     730:	cf 91       	pop	r28
     732:	1f 91       	pop	r17
     734:	0f 91       	pop	r16
     736:	ff 90       	pop	r15
     738:	ef 90       	pop	r14
     73a:	df 90       	pop	r13
     73c:	cf 90       	pop	r12
	for(uint16_t i=0;i<lenght;i++)
	{
		eeprom_update_byte((uint8_t *)i , *ptr);
		ptr++;
	}
	eeprom_update_word((uint16_t *)CRC16_EEPROM_ADDR,crc_calc);
     73e:	0c 94 07 0f 	jmp	0x1e0e	; 0x1e0e <eeprom_update_word>

00000742 <Decoder>:
};

volatile uint8_t unhandeld_data;
volatile uint16_t eeprom_ptr=0;
enum post_processing Decoder(uint8_t ReceivedByte, fifo_t* USARTtoUSB_Buffer)
{
     742:	cf 93       	push	r28
     744:	df 93       	push	r29
     746:	48 2f       	mov	r20, r24
	enum post_processing post_action=NOP;
	switch(current_state.state)
     748:	e0 91 e0 01 	lds	r30, 0x01E0	; 0x8001e0 <current_state>
     74c:	8e 2f       	mov	r24, r30
     74e:	90 e0       	ldi	r25, 0x00	; 0
     750:	88 31       	cpi	r24, 0x18	; 24
     752:	91 05       	cpc	r25, r1
     754:	08 f0       	brcs	.+2      	; 0x758 <Decoder+0x16>
     756:	1d c1       	rjmp	.+570    	; 0x992 <Decoder+0x250>
     758:	eb 01       	movw	r28, r22
     75a:	64 2f       	mov	r22, r20
     75c:	fc 01       	movw	r30, r24
     75e:	e6 5c       	subi	r30, 0xC6	; 198
     760:	ff 4f       	sbci	r31, 0xFF	; 255
     762:	0c 94 ce 0e 	jmp	0x1d9c	; 0x1d9c <__tablejump2__>
	{
		case ANFANG:
		// Lets Check if this if for Output
		if(ReceivedByte>0x17)
     766:	48 31       	cpi	r20, 0x18	; 24
     768:	30 f0       	brcs	.+12     	; 0x776 <Decoder+0x34>
		{
			if(insert_keybyte(ReceivedByte) == 0)	// Wenn kein Platz mehr im Ringpuffer war
     76a:	84 2f       	mov	r24, r20
     76c:	e5 d1       	rcall	.+970    	; 0xb38 <insert_keybyte>
     76e:	81 11       	cpse	r24, r1
     770:	12 c1       	rjmp	.+548    	; 0x996 <Decoder+0x254>
			{
				fifo_put(USARTtoUSB_Buffer, 0b11000000); //Buffer full
     772:	60 ec       	ldi	r22, 0xC0	; 192
     774:	67 c0       	rjmp	.+206    	; 0x844 <Decoder+0x102>
			}
		}
		else //Okay seems we go a command here....
		{
			switch (ReceivedByte)
     776:	50 e0       	ldi	r21, 0x00	; 0
     778:	fa 01       	movw	r30, r20
     77a:	31 97       	sbiw	r30, 0x01	; 1
     77c:	e7 31       	cpi	r30, 0x17	; 23
     77e:	f1 05       	cpc	r31, r1
     780:	20 f4       	brcc	.+8      	; 0x78a <Decoder+0x48>
     782:	ee 5a       	subi	r30, 0xAE	; 174
     784:	ff 4f       	sbci	r31, 0xFF	; 255
     786:	0c 94 ce 0e 	jmp	0x1d9c	; 0x1d9c <__tablejump2__>
			{
				case 0x00: // Adminbefehl
				{
					current_state.state = ADMIN_CMD;
     78a:	81 e0       	ldi	r24, 0x01	; 1
     78c:	46 c0       	rjmp	.+140    	; 0x81a <Decoder+0xd8>
				}
				break;
				
				case 0x01:	// Seitenton
				{
					current_state.state = SIDETONE;
     78e:	82 e0       	ldi	r24, 0x02	; 2
     790:	44 c0       	rjmp	.+136    	; 0x81a <Decoder+0xd8>
				}
				break;
				
				case 0x02: // Setze WPM-Geschwindigkeit
				{
					current_state.state = WPM_SPEED;
     792:	83 e0       	ldi	r24, 0x03	; 3
     794:	42 c0       	rjmp	.+132    	; 0x81a <Decoder+0xd8>
				
				}
				break;
				case 0x03: // Setze Gewichtung
				{
					current_state.state = WEIGHT;
     796:	84 e0       	ldi	r24, 0x04	; 4
     798:	40 c0       	rjmp	.+128    	; 0x81a <Decoder+0xd8>
					
				}
				break;
				case 0x04:	// Setze PTT Zeiten
				{
					current_state.parameter = 2;
     79a:	82 e0       	ldi	r24, 0x02	; 2
     79c:	80 93 e1 01 	sts	0x01E1, r24	; 0x8001e1 <current_state+0x1>
					current_state.state = PTT_TIME;
     7a0:	85 e0       	ldi	r24, 0x05	; 5
     7a2:	3b c0       	rjmp	.+118    	; 0x81a <Decoder+0xd8>
					
				}
				break;
				case 0x05:	// Potieinstellung
				{
					current_state.parameter = 3;
     7a4:	83 e0       	ldi	r24, 0x03	; 3
     7a6:	80 93 e1 01 	sts	0x01E1, r24	; 0x8001e1 <current_state+0x1>
					current_state.state = SPEEDPOTI;
     7aa:	86 e0       	ldi	r24, 0x06	; 6
     7ac:	36 c0       	rjmp	.+108    	; 0x81a <Decoder+0xd8>
					
				}
				break;
				case 0x06:	// Pause
				{
					current_state.state = PAUSE;
     7ae:	87 e0       	ldi	r24, 0x07	; 7
     7b0:	34 c0       	rjmp	.+104    	; 0x81a <Decoder+0xd8>
				}
				break;
				case 0x07:	// Potistatus
				{
					//  Direkte Verarbeitung hier. Poti nicht supportet
					fifo_put(USARTtoUSB_Buffer,0x10);
     7b2:	60 e1       	ldi	r22, 0x10	; 16
     7b4:	ec c0       	rjmp	.+472    	; 0x98e <Decoder+0x24c>
					// Ignored
				}
				break;
				case 0x09:	// Setze PINCFG Register
				{
					current_state.state = PINCFG;
     7b6:	88 e0       	ldi	r24, 0x08	; 8
     7b8:	30 c0       	rjmp	.+96     	; 0x81a <Decoder+0xd8>
				
				}
				break;
				case 0x0A:	// Loesche Puffer
				{
					Morse_FSM_Empty_Ascii_Buffer();
     7ba:	bb d1       	rcall	.+886    	; 0xb32 <Morse_FSM_Empty_Ascii_Buffer>
     7bc:	ec c0       	rjmp	.+472    	; 0x996 <Decoder+0x254>
				}
				break;
				case 0x0B:	// Dauerton ausgeben
				{
					current_state.state = KEY_IMMEDIATE;
     7be:	89 e0       	ldi	r24, 0x09	; 9
     7c0:	2c c0       	rjmp	.+88     	; 0x81a <Decoder+0xd8>
				}
				break;
				case 0x0C:	// Setze HSCW
				{
					current_state.state = HSCW;
     7c2:	8a e0       	ldi	r24, 0x0A	; 10
     7c4:	2a c0       	rjmp	.+84     	; 0x81a <Decoder+0xd8>
				}
				break;
				case 0x0D:	// Setze WPM
				{
					current_state.state = SET_WPM;
     7c6:	8b e0       	ldi	r24, 0x0B	; 11
     7c8:	28 c0       	rjmp	.+80     	; 0x81a <Decoder+0xd8>
				}
				break;
				case 0x0E:	// Setze Keymode
				{
					//Also setzs Modebits at once...
					current_state.state = SET_KEYMODE;
     7ca:	8c e0       	ldi	r24, 0x0C	; 12
     7cc:	26 c0       	rjmp	.+76     	; 0x81a <Decoder+0xd8>
				}
				break;
				case 0x0F:	// Setze alle Werte auf einmal
				{
					current_state.parameter = 15;
     7ce:	8f e0       	ldi	r24, 0x0F	; 15
     7d0:	80 93 e1 01 	sts	0x01E1, r24	; 0x8001e1 <current_state+0x1>
					current_state.state = LOAD_ALL;
     7d4:	8d e0       	ldi	r24, 0x0D	; 13
     7d6:	21 c0       	rjmp	.+66     	; 0x81a <Decoder+0xd8>
				}
				break;
				case 0x10:	// Verlaengerung des ersten Zeichens
				{
					current_state.state = EXTENSION;
     7d8:	8e e0       	ldi	r24, 0x0E	; 14
     7da:	1f c0       	rjmp	.+62     	; 0x81a <Decoder+0xd8>
				}
				break;
				case 0x11:	// Key-Kompensation, Verlaengerung aller Zeichen
				{
					current_state.state = KEY_COMP;
     7dc:	8f e0       	ldi	r24, 0x0F	; 15
     7de:	1d c0       	rjmp	.+58     	; 0x81a <Decoder+0xd8>
				}
				break;
				case 0x12:	// Setze Paddle Umschaltzeit
				{
					current_state.state = PADDLE_SP;
     7e0:	80 e1       	ldi	r24, 0x10	; 16
     7e2:	1b c0       	rjmp	.+54     	; 0x81a <Decoder+0xd8>
				
				}
				break;
				case 0x14:	// Software paddle
				{
					current_state.state = SW_PADDLE;
     7e4:	81 e1       	ldi	r24, 0x11	; 17
     7e6:	19 c0       	rjmp	.+50     	; 0x81a <Decoder+0xd8>
					Bit 3 = KEYDOWN / Tune
					Bit 2 = Keyer is Busy sending Morse
					Bit 1 = BREAKIN / Paddle Breakin active = 1
					Bit 0 = XOFF <- Buffer more then 2/3 full when 1
					*/
					if(Morse_FSM_Get_Buffer_Free()<42)
     7e8:	91 d1       	rcall	.+802    	; 0xb0c <Morse_FSM_Get_Buffer_Free>
     7ea:	8a 32       	cpi	r24, 0x2A	; 42
     7ec:	10 f4       	brcc	.+4      	; 0x7f2 <Decoder+0xb0>
					{
						status |=0x00000001;
     7ee:	61 ec       	ldi	r22, 0xC1	; 193
     7f0:	ce c0       	rjmp	.+412    	; 0x98e <Decoder+0x24c>
					current_state.state = SW_PADDLE;
				}
				break;
				case 0x15: // Keyer-Status <- Buffer full or not :-)
				{
					uint8_t status = 0b11000000;
     7f2:	60 ec       	ldi	r22, 0xC0	; 192
     7f4:	cc c0       	rjmp	.+408    	; 0x98e <Decoder+0x24c>
					current_state.state=ANFANG;
				}
				break;
				case 0x16:	// Eingabepuffer manipulieren
				{
					current_state.state = POINTER_CMD1;
     7f6:	82 e1       	ldi	r24, 0x12	; 18
     7f8:	10 c0       	rjmp	.+32     	; 0x81a <Decoder+0xd8>
				}
				break;
				case 0x17:	// Dit-Dah Verhaeltnis
				{
					current_state.state = DD_RATIO;
     7fa:	84 e1       	ldi	r24, 0x14	; 20
     7fc:	0e c0       	rjmp	.+28     	; 0x81a <Decoder+0xd8>
			
		}
		break;
		case ADMIN_CMD:
		{
			switch(ReceivedByte)
     7fe:	50 e0       	ldi	r21, 0x00	; 0
     800:	47 31       	cpi	r20, 0x17	; 23
     802:	51 05       	cpc	r21, r1
     804:	08 f0       	brcs	.+2      	; 0x808 <Decoder+0xc6>
     806:	c5 c0       	rjmp	.+394    	; 0x992 <Decoder+0x250>
     808:	fa 01       	movw	r30, r20
     80a:	e7 59       	subi	r30, 0x97	; 151
     80c:	ff 4f       	sbci	r31, 0xFF	; 255
     80e:	0c 94 ce 0e 	jmp	0x1d9c	; 0x1d9c <__tablejump2__>
		break;
		
		case CALIBRATE:
		{
			//Okay we need to get 0x00 , 0xFF
			if(ReceivedByte==0xFF)
     812:	4f 3f       	cpi	r20, 0xFF	; 255
     814:	09 f4       	brne	.+2      	; 0x818 <Decoder+0xd6>
     816:	bd c0       	rjmp	.+378    	; 0x992 <Decoder+0x250>
			switch(ReceivedByte)
			{
				case 0x00:
				{
					//We will get <0x00> <0x00> [100ms Pause] <0xFF>
					current_state.state =CALIBRATE;
     818:	86 e1       	ldi	r24, 0x16	; 22
     81a:	80 93 e0 01 	sts	0x01E0, r24	; 0x8001e0 <current_state>
     81e:	bb c0       	rjmp	.+374    	; 0x996 <Decoder+0x254>
				: "r0"
		);
	}
	else
	{
		__asm__ __volatile__ (
     820:	9c e0       	ldi	r25, 0x0C	; 12
     822:	88 e1       	ldi	r24, 0x18	; 24
     824:	0f b6       	in	r0, 0x3f	; 63
     826:	f8 94       	cli
     828:	a8 95       	wdr
     82a:	80 93 60 00 	sts	0x0060, r24	; 0x800060 <__EEPROM_REGION_LENGTH__+0x7f0060>
     82e:	0f be       	out	0x3f, r0	; 63
     830:	90 93 60 00 	sts	0x0060, r25	; 0x800060 <__EEPROM_REGION_LENGTH__+0x7f0060>
				
				case 0x01:
				{
				wdt_enable(WDTO_250MS);
				while(1)
				{}
     834:	ff cf       	rjmp	.-2      	; 0x834 <Decoder+0xf2>
				}
				break;
				case 0x02:
				{
					fifo_put(USARTtoUSB_Buffer, 0x16);
     836:	66 e1       	ldi	r22, 0x16	; 22
     838:	aa c0       	rjmp	.+340    	; 0x98e <Decoder+0x24c>
					current_state.state =ANFANG;
				}
				break;
				case 0x04:
				{
					current_state.state = ECHO_LOOPBACK;
     83a:	85 e1       	ldi	r24, 0x15	; 21
     83c:	ee cf       	rjmp	.-36     	; 0x81a <Decoder+0xd8>
				}
				break;
				
				case 0x05:
				{
				current_state.state =ANFANG;
     83e:	10 92 e0 01 	sts	0x01E0, r1	; 0x8001e0 <current_state>
				fifo_put(USARTtoUSB_Buffer,0x00);
     842:	60 e0       	ldi	r22, 0x00	; 0
     844:	ce 01       	movw	r24, r28
     846:	7f de       	rcall	.-770    	; 0x546 <fifo_put>
     848:	a6 c0       	rjmp	.+332    	; 0x996 <Decoder+0x254>
				case 0x0C:
				{
					//Needs to Dump EEPROM (256 Byte)
					//The decoder is modified and can inform a post-pocessing 
					post_action=DUMP_EEPROM_CONFIG;
					current_state.state = ANFANG;
     84a:	10 92 e0 01 	sts	0x01E0, r1	; 0x8001e0 <current_state>
				
				case 0x0C:
				{
					//Needs to Dump EEPROM (256 Byte)
					//The decoder is modified and can inform a post-pocessing 
					post_action=DUMP_EEPROM_CONFIG;
     84e:	81 e0       	ldi	r24, 0x01	; 1
					current_state.state = ANFANG;
					
				}		
				break;
     850:	a3 c0       	rjmp	.+326    	; 0x998 <Decoder+0x256>
				
				case 0x0D:
				{
					//Here we should load 256 Byte into our eeprom	
					current_state.state=LOAD_EEPROM; //There should follow 256 Byte Data
     852:	87 e1       	ldi	r24, 0x17	; 23
     854:	80 93 e0 01 	sts	0x01E0, r24	; 0x8001e0 <current_state>
					eeprom_ptr=0;
     858:	10 92 df 01 	sts	0x01DF, r1	; 0x8001df <eeprom_ptr+0x1>
     85c:	10 92 de 01 	sts	0x01DE, r1	; 0x8001de <eeprom_ptr>
     860:	9a c0       	rjmp	.+308    	; 0x996 <Decoder+0x254>
				}
				break;
				
				case 0x15: //Return Powersupplyvolateg
				{
					current_state.state = ANFANG;
     862:	10 92 e0 01 	sts	0x01E0, r1	; 0x8001e0 <current_state>
					//Return the Powersupplyvoltage, here hardcoded to 5V
					fifo_put(USARTtoUSB_Buffer,0x52); //almost 5Volt
     866:	62 e5       	ldi	r22, 0x52	; 82
     868:	ed cf       	rjmp	.-38     	; 0x844 <Decoder+0x102>
		break;
		case WPM_SPEED:
		{
			//eeprom_write_byte(&wpm_speed_EEPROM, ReceivedByte+6);
			//speedconfig = 1200l / ((uint16_t)ReceivedByte+6l);
			DefaultConfiguration.WPM=ReceivedByte;
     86a:	40 93 10 02 	sts	0x0210, r20	; 0x800210 <DefaultConfiguration+0x2>
			SetWPM(ReceivedByte);
     86e:	84 2f       	mov	r24, r20
     870:	67 d1       	rcall	.+718    	; 0xb40 <SetWPM>
			save_configuration((WinKeyConfig_t*)(&DefaultConfiguration));
     872:	8e e0       	ldi	r24, 0x0E	; 14
     874:	92 e0       	ldi	r25, 0x02	; 2
     876:	33 df       	rcall	.-410    	; 0x6de <save_configuration>
     878:	8c c0       	rjmp	.+280    	; 0x992 <Decoder+0x250>
			
		}
		break;
		case PTT_TIME:
		{
			switch(current_state.parameter)
     87a:	80 91 e1 01 	lds	r24, 0x01E1	; 0x8001e1 <current_state+0x1>
     87e:	82 30       	cpi	r24, 0x02	; 2
     880:	09 f0       	breq	.+2      	; 0x884 <Decoder+0x142>
     882:	6d c0       	rjmp	.+218    	; 0x95e <Decoder+0x21c>
     884:	60 c0       	rjmp	.+192    	; 0x946 <Decoder+0x204>
			
		}
		break;
		case SPEEDPOTI:
		{
			switch(current_state.parameter)
     886:	80 91 e1 01 	lds	r24, 0x01E1	; 0x8001e1 <current_state+0x1>
     88a:	82 30       	cpi	r24, 0x02	; 2
     88c:	09 f4       	brne	.+2      	; 0x890 <Decoder+0x14e>
     88e:	5b c0       	rjmp	.+182    	; 0x946 <Decoder+0x204>
     890:	83 30       	cpi	r24, 0x03	; 3
     892:	09 f0       	breq	.+2      	; 0x896 <Decoder+0x154>
     894:	64 c0       	rjmp	.+200    	; 0x95e <Decoder+0x21c>
     896:	53 c0       	rjmp	.+166    	; 0x93e <Decoder+0x1fc>
		break;
		case SET_KEYMODE:
		{
			//eeprom_write_byte(&winkey_mode_EEPROM, ReceivedByte);
			
			DefaultConfiguration.Moderegister=ReceivedByte;
     898:	40 93 0f 02 	sts	0x020F, r20	; 0x80020f <DefaultConfiguration+0x1>
			save_configuration((WinKeyConfig_t*)(&DefaultConfiguration));
     89c:	8e e0       	ldi	r24, 0x0E	; 14
     89e:	92 e0       	ldi	r25, 0x02	; 2
     8a0:	1e df       	rcall	.-452    	; 0x6de <save_configuration>
			Bit 3 - Paddleswap
			Bit 2 - Serial Echo Back
			Bit 1 - Autospace
			Bit 0 - CT Spacing = 1, Normal Wordspace when = 0
			*/
			Morse_FSM_Update_Config((WinKeyConfig_t*)(&DefaultConfiguration));
     8a2:	8e e0       	ldi	r24, 0x0E	; 14
     8a4:	92 e0       	ldi	r25, 0x02	; 2
     8a6:	f8 d0       	rcall	.+496    	; 0xa98 <Morse_FSM_Update_Config>
     8a8:	74 c0       	rjmp	.+232    	; 0x992 <Decoder+0x250>
			
		}
		break;
		case SW_PADDLE:
		{
			switch(ReceivedByte)
     8aa:	41 30       	cpi	r20, 0x01	; 1
     8ac:	29 f0       	breq	.+10     	; 0x8b8 <Decoder+0x176>
     8ae:	42 30       	cpi	r20, 0x02	; 2
     8b0:	09 f0       	breq	.+2      	; 0x8b4 <Decoder+0x172>
     8b2:	71 c0       	rjmp	.+226    	; 0x996 <Decoder+0x254>
				//SW command for a DIT what shall we do with the stuff in our Buffer?
				Morse_FSM_Force_Dit();
				break;
				case 0x02:	// dah
				//SW command for a DIT what shall we do with the stuff in our Buffer?
				Morse_FSM_Force_Dah();
     8b4:	39 d1       	rcall	.+626    	; 0xb28 <Morse_FSM_Force_Dah>
     8b6:	6f c0       	rjmp	.+222    	; 0x996 <Decoder+0x254>
		{
			switch(ReceivedByte)
			{
				case 0x01:	// dit
				//SW command for a DIT what shall we do with the stuff in our Buffer?
				Morse_FSM_Force_Dit();
     8b8:	32 d1       	rcall	.+612    	; 0xb1e <Morse_FSM_Force_Dit>
     8ba:	6d c0       	rjmp	.+218    	; 0x996 <Decoder+0x254>
			
		}
		break;
		case LOAD_ALL:
		{
			switch(current_state.parameter)
     8bc:	80 91 e1 01 	lds	r24, 0x01E1	; 0x8001e1 <current_state+0x1>
     8c0:	90 e0       	ldi	r25, 0x00	; 0
     8c2:	fc 01       	movw	r30, r24
     8c4:	31 97       	sbiw	r30, 0x01	; 1
     8c6:	ef 30       	cpi	r30, 0x0F	; 15
     8c8:	f1 05       	cpc	r31, r1
     8ca:	08 f0       	brcs	.+2      	; 0x8ce <Decoder+0x18c>
     8cc:	48 c0       	rjmp	.+144    	; 0x95e <Decoder+0x21c>
     8ce:	e0 58       	subi	r30, 0x80	; 128
     8d0:	ff 4f       	sbci	r31, 0xFF	; 255
     8d2:	0c 94 ce 0e 	jmp	0x1d9c	; 0x1d9c <__tablejump2__>
			{
				case 15:
				DefaultConfiguration.Moderegister=ReceivedByte;
     8d6:	40 93 0f 02 	sts	0x020F, r20	; 0x80020f <DefaultConfiguration+0x1>
				current_state.parameter = 14;
     8da:	8e e0       	ldi	r24, 0x0E	; 14
     8dc:	0b c0       	rjmp	.+22     	; 0x8f4 <Decoder+0x1b2>
				break;
				case 14:	// Geschwindigkeit
				DefaultConfiguration.WPM=ReceivedByte;
     8de:	40 93 10 02 	sts	0x0210, r20	; 0x800210 <DefaultConfiguration+0x2>
				current_state.parameter = 13;
     8e2:	8d e0       	ldi	r24, 0x0D	; 13
     8e4:	07 c0       	rjmp	.+14     	; 0x8f4 <Decoder+0x1b2>
				break;
				case 13:
				DefaultConfiguration.Sidetone=ReceivedByte;
     8e6:	40 93 11 02 	sts	0x0211, r20	; 0x800211 <DefaultConfiguration+0x3>
				current_state.parameter = 12;
     8ea:	8c e0       	ldi	r24, 0x0C	; 12
     8ec:	03 c0       	rjmp	.+6      	; 0x8f4 <Decoder+0x1b2>
				break;
				case 12:
				DefaultConfiguration.Weight=ReceivedByte;
     8ee:	40 93 12 02 	sts	0x0212, r20	; 0x800212 <DefaultConfiguration+0x4>
				current_state.parameter = 11;
     8f2:	8b e0       	ldi	r24, 0x0B	; 11
     8f4:	80 93 e1 01 	sts	0x01E1, r24	; 0x8001e1 <current_state+0x1>
     8f8:	4e c0       	rjmp	.+156    	; 0x996 <Decoder+0x254>
				break;
				case 11:
				DefaultConfiguration.LeadInTime=ReceivedByte;
     8fa:	40 93 13 02 	sts	0x0213, r20	; 0x800213 <DefaultConfiguration+0x5>
				current_state.parameter = 10;
     8fe:	8a e0       	ldi	r24, 0x0A	; 10
     900:	f9 cf       	rjmp	.-14     	; 0x8f4 <Decoder+0x1b2>
				break;
				case 10:
				DefaultConfiguration.TailTime=ReceivedByte;
     902:	40 93 14 02 	sts	0x0214, r20	; 0x800214 <DefaultConfiguration+0x6>
				current_state.parameter = 9;
     906:	89 e0       	ldi	r24, 0x09	; 9
     908:	f5 cf       	rjmp	.-22     	; 0x8f4 <Decoder+0x1b2>
				break;
				case 9:
				DefaultConfiguration.MinWPM=ReceivedByte;
     90a:	40 93 15 02 	sts	0x0215, r20	; 0x800215 <DefaultConfiguration+0x7>
				current_state.parameter = 8;
     90e:	88 e0       	ldi	r24, 0x08	; 8
     910:	f1 cf       	rjmp	.-30     	; 0x8f4 <Decoder+0x1b2>
				break;
				case 8:
				DefaultConfiguration.WPMRange=ReceivedByte;
     912:	40 93 16 02 	sts	0x0216, r20	; 0x800216 <DefaultConfiguration+0x8>
				current_state.parameter = 7;
     916:	87 e0       	ldi	r24, 0x07	; 7
     918:	ed cf       	rjmp	.-38     	; 0x8f4 <Decoder+0x1b2>
				break;
				case 7:
				DefaultConfiguration.X2Mode=ReceivedByte; //In WK2 Mode this is 1st Extension
     91a:	40 93 17 02 	sts	0x0217, r20	; 0x800217 <DefaultConfiguration+0x9>
				current_state.parameter = 6;
     91e:	86 e0       	ldi	r24, 0x06	; 6
     920:	e9 cf       	rjmp	.-46     	; 0x8f4 <Decoder+0x1b2>
				break;
				case 6:
				DefaultConfiguration.KeyCompensation=ReceivedByte;
     922:	40 93 18 02 	sts	0x0218, r20	; 0x800218 <DefaultConfiguration+0xa>
				current_state.parameter = 5;
     926:	85 e0       	ldi	r24, 0x05	; 5
     928:	e5 cf       	rjmp	.-54     	; 0x8f4 <Decoder+0x1b2>
				break;
				case 5:
				DefaultConfiguration.FarnsworthWPM=ReceivedByte;
     92a:	40 93 19 02 	sts	0x0219, r20	; 0x800219 <DefaultConfiguration+0xb>
				current_state.parameter = 4;
     92e:	84 e0       	ldi	r24, 0x04	; 4
     930:	e1 cf       	rjmp	.-62     	; 0x8f4 <Decoder+0x1b2>
				break;
				case 4:
				DefaultConfiguration.PaddleSetPoint=ReceivedByte;
     932:	40 93 1a 02 	sts	0x021A, r20	; 0x80021a <DefaultConfiguration+0xc>
				current_state.parameter = 3;
     936:	83 e0       	ldi	r24, 0x03	; 3
     938:	dd cf       	rjmp	.-70     	; 0x8f4 <Decoder+0x1b2>
				break;
				case 3:
				DefaultConfiguration.DitDahRatio=ReceivedByte;
     93a:	40 93 1b 02 	sts	0x021B, r20	; 0x80021b <DefaultConfiguration+0xd>
				current_state.parameter = 2;
     93e:	82 e0       	ldi	r24, 0x02	; 2
     940:	d9 cf       	rjmp	.-78     	; 0x8f4 <Decoder+0x1b2>
				break;
				case 2:
				DefaultConfiguration.PinConfiguration=ReceivedByte;
     942:	40 93 1c 02 	sts	0x021C, r20	; 0x80021c <DefaultConfiguration+0xe>
				current_state.parameter = 1;
     946:	81 e0       	ldi	r24, 0x01	; 1
     948:	d5 cf       	rjmp	.-86     	; 0x8f4 <Decoder+0x1b2>
				break;
				case 1:
				DefaultConfiguration.X1Mode=ReceivedByte;	//IN WK2 Mode this is Don't Care and set to '0'
     94a:	40 93 1d 02 	sts	0x021D, r20	; 0x80021d <DefaultConfiguration+0xf>
				current_state.parameter = 0;
     94e:	10 92 e1 01 	sts	0x01E1, r1	; 0x8001e1 <current_state+0x1>
				current_state.state = ANFANG;
     952:	10 92 e0 01 	sts	0x01E0, r1	; 0x8001e0 <current_state>
				save_configuration((WinKeyConfig_t*)(&DefaultConfiguration));
     956:	8e e0       	ldi	r24, 0x0E	; 14
     958:	92 e0       	ldi	r25, 0x02	; 2
     95a:	c1 de       	rcall	.-638    	; 0x6de <save_configuration>
     95c:	1c c0       	rjmp	.+56     	; 0x996 <Decoder+0x254>
				break;
				default:
				current_state.parameter = 0;
     95e:	10 92 e1 01 	sts	0x01E1, r1	; 0x8001e1 <current_state+0x1>
     962:	17 c0       	rjmp	.+46     	; 0x992 <Decoder+0x250>
			
		}
		break;
		case LOAD_EEPROM:
		{
			WinkeyEEPROMwrite(eeprom_ptr++,ReceivedByte);
     964:	80 91 de 01 	lds	r24, 0x01DE	; 0x8001de <eeprom_ptr>
     968:	90 91 df 01 	lds	r25, 0x01DF	; 0x8001df <eeprom_ptr+0x1>
     96c:	9c 01       	movw	r18, r24
     96e:	2f 5f       	subi	r18, 0xFF	; 255
     970:	3f 4f       	sbci	r19, 0xFF	; 255
     972:	30 93 df 01 	sts	0x01DF, r19	; 0x8001df <eeprom_ptr+0x1>
     976:	20 93 de 01 	sts	0x01DE, r18	; 0x8001de <eeprom_ptr>
     97a:	3a de       	rcall	.-908    	; 0x5f0 <WinkeyEEPROMwrite>
			if(eeprom_ptr>255) //Last Byte recived
     97c:	80 91 de 01 	lds	r24, 0x01DE	; 0x8001de <eeprom_ptr>
     980:	90 91 df 01 	lds	r25, 0x01DF	; 0x8001df <eeprom_ptr+0x1>
     984:	8f 3f       	cpi	r24, 0xFF	; 255
     986:	91 05       	cpc	r25, r1
     988:	31 f0       	breq	.+12     	; 0x996 <Decoder+0x254>
     98a:	28 f0       	brcs	.+10     	; 0x996 <Decoder+0x254>
     98c:	02 c0       	rjmp	.+4      	; 0x992 <Decoder+0x250>
			
		}
		break;
		case ECHO_LOOPBACK:
		{
			fifo_put(USARTtoUSB_Buffer, ReceivedByte); //Echo Back the Byte
     98e:	ce 01       	movw	r24, r28
     990:	da dd       	rcall	.-1100   	; 0x546 <fifo_put>
			}
		}
		break;
		
		default:
		current_state.state=ANFANG;
     992:	10 92 e0 01 	sts	0x01E0, r1	; 0x8001e0 <current_state>

volatile uint8_t unhandeld_data;
volatile uint16_t eeprom_ptr=0;
enum post_processing Decoder(uint8_t ReceivedByte, fifo_t* USARTtoUSB_Buffer)
{
	enum post_processing post_action=NOP;
     996:	80 e0       	ldi	r24, 0x00	; 0
		current_state.state=ANFANG;
		break;
	}
	
	return post_action;
}
     998:	df 91       	pop	r29
     99a:	cf 91       	pop	r28
     99c:	08 95       	ret

0000099e <CALLBACK_USB_GetDescriptor>:
 */
uint16_t CALLBACK_USB_GetDescriptor(const uint16_t wValue,
                                    const uint8_t wIndex,
                                    const void** const DescriptorAddress)
{
	const uint8_t  DescriptorType   = (wValue >> 8);
     99e:	29 2f       	mov	r18, r25
     9a0:	33 27       	eor	r19, r19
	const uint8_t  DescriptorNumber = (wValue & 0xFF);

	const void* Address = NULL;
	uint16_t    Size    = NO_DESCRIPTOR;

	switch (DescriptorType)
     9a2:	22 30       	cpi	r18, 0x02	; 2
     9a4:	31 05       	cpc	r19, r1
     9a6:	59 f0       	breq	.+22     	; 0x9be <CALLBACK_USB_GetDescriptor+0x20>
     9a8:	23 30       	cpi	r18, 0x03	; 3
     9aa:	31 05       	cpc	r19, r1
     9ac:	69 f0       	breq	.+26     	; 0x9c8 <CALLBACK_USB_GetDescriptor+0x2a>
     9ae:	21 30       	cpi	r18, 0x01	; 1
     9b0:	31 05       	cpc	r19, r1
     9b2:	f9 f4       	brne	.+62     	; 0x9f2 <CALLBACK_USB_GetDescriptor+0x54>
	{
		case DTYPE_Device:
			Address = &DeviceDescriptor;
			Size    = sizeof(USB_Descriptor_Device_t);
     9b4:	82 e1       	ldi	r24, 0x12	; 18
     9b6:	90 e0       	ldi	r25, 0x00	; 0
	uint16_t    Size    = NO_DESCRIPTOR;

	switch (DescriptorType)
	{
		case DTYPE_Device:
			Address = &DeviceDescriptor;
     9b8:	24 ee       	ldi	r18, 0xE4	; 228
     9ba:	31 e0       	ldi	r19, 0x01	; 1
     9bc:	1e c0       	rjmp	.+60     	; 0x9fa <CALLBACK_USB_GetDescriptor+0x5c>
			Size    = sizeof(USB_Descriptor_Device_t);
			break;
		case DTYPE_Configuration:
			Address = &ConfigurationDescriptor;
			Size    = sizeof(USB_Descriptor_Configuration_t);
     9be:	8e e3       	ldi	r24, 0x3E	; 62
     9c0:	90 e0       	ldi	r25, 0x00	; 0
		case DTYPE_Device:
			Address = &DeviceDescriptor;
			Size    = sizeof(USB_Descriptor_Device_t);
			break;
		case DTYPE_Configuration:
			Address = &ConfigurationDescriptor;
     9c2:	26 ea       	ldi	r18, 0xA6	; 166
     9c4:	31 e0       	ldi	r19, 0x01	; 1
			Size    = sizeof(USB_Descriptor_Configuration_t);
			break;
     9c6:	19 c0       	rjmp	.+50     	; 0x9fa <CALLBACK_USB_GetDescriptor+0x5c>
     9c8:	99 27       	eor	r25, r25
		case DTYPE_String:
			switch (DescriptorNumber)
     9ca:	81 30       	cpi	r24, 0x01	; 1
     9cc:	91 05       	cpc	r25, r1
     9ce:	41 f0       	breq	.+16     	; 0x9e0 <CALLBACK_USB_GetDescriptor+0x42>
     9d0:	82 30       	cpi	r24, 0x02	; 2
     9d2:	91 05       	cpc	r25, r1
     9d4:	41 f0       	breq	.+16     	; 0x9e6 <CALLBACK_USB_GetDescriptor+0x48>
     9d6:	89 2b       	or	r24, r25
     9d8:	61 f4       	brne	.+24     	; 0x9f2 <CALLBACK_USB_GetDescriptor+0x54>
			{
				case STRING_ID_Language:
					Address = &LanguageString;
					Size    = pgm_read_byte(&LanguageString.Header.Size);
     9da:	e2 ea       	ldi	r30, 0xA2	; 162
     9dc:	f1 e0       	ldi	r31, 0x01	; 1
     9de:	05 c0       	rjmp	.+10     	; 0x9ea <CALLBACK_USB_GetDescriptor+0x4c>
					break;
				case STRING_ID_Manufacturer:
					Address = &ManufacturerString;
					Size    = pgm_read_byte(&ManufacturerString.Header.Size);
     9e0:	ee e8       	ldi	r30, 0x8E	; 142
     9e2:	f1 e0       	ldi	r31, 0x01	; 1
     9e4:	02 c0       	rjmp	.+4      	; 0x9ea <CALLBACK_USB_GetDescriptor+0x4c>
					break;
				case STRING_ID_Product:
					Address = &ProductString;
					Size    = pgm_read_byte(&ProductString.Header.Size);
     9e6:	ea e7       	ldi	r30, 0x7A	; 122
     9e8:	f1 e0       	ldi	r31, 0x01	; 1
     9ea:	84 91       	lpm	r24, Z
     9ec:	90 e0       	ldi	r25, 0x00	; 0
				case STRING_ID_Manufacturer:
					Address = &ManufacturerString;
					Size    = pgm_read_byte(&ManufacturerString.Header.Size);
					break;
				case STRING_ID_Product:
					Address = &ProductString;
     9ee:	9f 01       	movw	r18, r30
					Size    = pgm_read_byte(&ProductString.Header.Size);
					break;
     9f0:	04 c0       	rjmp	.+8      	; 0x9fa <CALLBACK_USB_GetDescriptor+0x5c>
{
	const uint8_t  DescriptorType   = (wValue >> 8);
	const uint8_t  DescriptorNumber = (wValue & 0xFF);

	const void* Address = NULL;
	uint16_t    Size    = NO_DESCRIPTOR;
     9f2:	80 e0       	ldi	r24, 0x00	; 0
     9f4:	90 e0       	ldi	r25, 0x00	; 0
                                    const void** const DescriptorAddress)
{
	const uint8_t  DescriptorType   = (wValue >> 8);
	const uint8_t  DescriptorNumber = (wValue & 0xFF);

	const void* Address = NULL;
     9f6:	20 e0       	ldi	r18, 0x00	; 0
     9f8:	30 e0       	ldi	r19, 0x00	; 0
			}

			break;
	}

	*DescriptorAddress = Address;
     9fa:	fa 01       	movw	r30, r20
     9fc:	31 83       	std	Z+1, r19	; 0x01
     9fe:	20 83       	st	Z, r18
	return Size;
}
     a00:	08 95       	ret

00000a02 <CharToMorse>:
morsechar_t CharToMorse(char Inputchar)
{
	morsechar_t returnvalue={.morsecode=0x00,.lenght=0}; //Default case for failed lookup
	
	//Calculate input offset
	if((Inputchar<FIRSTLUTCHAR)||(Inputchar>'z'))
     a02:	9f ed       	ldi	r25, 0xDF	; 223
     a04:	98 0f       	add	r25, r24
     a06:	9a 35       	cpi	r25, 0x5A	; 90
     a08:	a0 f4       	brcc	.+40     	; 0xa32 <CharToMorse+0x30>
		//Okay Char can't be looked up, not in Table and therefore no morsechar
	}
	else
	{
		//Lets see if an ToUpper is requiered
		if((Inputchar>='a')&&(Inputchar<='z'))
     a0a:	9f e9       	ldi	r25, 0x9F	; 159
     a0c:	98 0f       	add	r25, r24
     a0e:	9a 31       	cpi	r25, 0x1A	; 26
     a10:	08 f4       	brcc	.+2      	; 0xa14 <CharToMorse+0x12>
		{
			//Okay to Upper reqiered
			Inputchar-=('a'-'A');
     a12:	80 52       	subi	r24, 0x20	; 32
		}
		returnvalue.morsecode	= pgm_read_byte(&(morsetable[Inputchar-FIRSTLUTCHAR].morsecode));
     a14:	28 2f       	mov	r18, r24
     a16:	30 e0       	ldi	r19, 0x00	; 0
     a18:	21 52       	subi	r18, 0x21	; 33
     a1a:	31 09       	sbc	r19, r1
     a1c:	22 0f       	add	r18, r18
     a1e:	33 1f       	adc	r19, r19
     a20:	f9 01       	movw	r30, r18
     a22:	ea 50       	subi	r30, 0x0A	; 10
     a24:	fe 4f       	sbci	r31, 0xFE	; 254
     a26:	84 91       	lpm	r24, Z
		returnvalue.lenght		= pgm_read_byte(&(morsetable[Inputchar-FIRSTLUTCHAR].lenght));
     a28:	f9 01       	movw	r30, r18
     a2a:	e9 50       	subi	r30, 0x09	; 9
     a2c:	fe 4f       	sbci	r31, 0xFE	; 254
     a2e:	94 91       	lpm	r25, Z
     a30:	08 95       	ret
								{.morsecode=0b00001101,.lenght=6} 	//ASCII '_'								
							};
							
morsechar_t CharToMorse(char Inputchar)
{
	morsechar_t returnvalue={.morsecode=0x00,.lenght=0}; //Default case for failed lookup
     a32:	90 e0       	ldi	r25, 0x00	; 0
     a34:	80 e0       	ldi	r24, 0x00	; 0
		}
		returnvalue.morsecode	= pgm_read_byte(&(morsetable[Inputchar-FIRSTLUTCHAR].morsecode));
		returnvalue.lenght		= pgm_read_byte(&(morsetable[Inputchar-FIRSTLUTCHAR].lenght));
	}
	return returnvalue;
}
     a36:	08 95       	ret

00000a38 <MorseFSM_Init>:
			}
			Data.morsecode=Data.morsecode>>1;
		}
	}
	return 1;
}
     a38:	cf 93       	push	r28
     a3a:	df 93       	push	r29
     a3c:	ec 01       	movw	r28, r24
     a3e:	40 e1       	ldi	r20, 0x10	; 16
     a40:	62 ee       	ldi	r22, 0xE2	; 226
     a42:	72 e0       	ldi	r23, 0x02	; 2
     a44:	84 e0       	ldi	r24, 0x04	; 4
     a46:	92 e0       	ldi	r25, 0x02	; 2
     a48:	63 dd       	rcall	.-1338   	; 0x510 <fifo_init>
     a4a:	40 e8       	ldi	r20, 0x80	; 128
     a4c:	62 e6       	ldi	r22, 0x62	; 98
     a4e:	72 e0       	ldi	r23, 0x02	; 2
     a50:	8a ef       	ldi	r24, 0xFA	; 250
     a52:	91 e0       	ldi	r25, 0x01	; 1
     a54:	5d dd       	rcall	.-1350   	; 0x510 <fifo_init>
     a56:	40 e4       	ldi	r20, 0x40	; 64
     a58:	61 e2       	ldi	r22, 0x21	; 33
     a5a:	72 e0       	ldi	r23, 0x02	; 2
     a5c:	80 ef       	ldi	r24, 0xF0	; 240
     a5e:	91 e0       	ldi	r25, 0x01	; 1
     a60:	57 dd       	rcall	.-1362   	; 0x510 <fifo_init>
     a62:	e1 e8       	ldi	r30, 0x81	; 129
     a64:	f0 e0       	ldi	r31, 0x00	; 0
     a66:	90 81       	ld	r25, Z
     a68:	98 60       	ori	r25, 0x08	; 8
     a6a:	90 83       	st	Z, r25
     a6c:	90 81       	ld	r25, Z
     a6e:	91 60       	ori	r25, 0x01	; 1
     a70:	90 83       	st	Z, r25
     a72:	80 e4       	ldi	r24, 0x40	; 64
     a74:	9f e1       	ldi	r25, 0x1F	; 31
     a76:	90 93 89 00 	sts	0x0089, r25	; 0x800089 <__EEPROM_REGION_LENGTH__+0x7f0089>
     a7a:	80 93 88 00 	sts	0x0088, r24	; 0x800088 <__EEPROM_REGION_LENGTH__+0x7f0088>
     a7e:	d0 93 20 02 	sts	0x0220, r29	; 0x800220 <EchoBuffer+0x1>
     a82:	c0 93 1f 02 	sts	0x021F, r28	; 0x80021f <EchoBuffer>
     a86:	df 91       	pop	r29
     a88:	cf 91       	pop	r28
     a8a:	08 95       	ret

00000a8c <Morse_FSM_Start>:
     a8c:	ef e6       	ldi	r30, 0x6F	; 111
     a8e:	f0 e0       	ldi	r31, 0x00	; 0
     a90:	80 81       	ld	r24, Z
     a92:	82 60       	ori	r24, 0x02	; 2
     a94:	80 83       	st	Z, r24
     a96:	08 95       	ret

00000a98 <Morse_FSM_Update_Config>:
     a98:	fc 01       	movw	r30, r24
     a9a:	21 81       	ldd	r18, Z+1	; 0x01
     a9c:	23 fb       	bst	r18, 3
     a9e:	66 27       	eor	r22, r22
     aa0:	60 f9       	bld	r22, 0
     aa2:	70 e0       	ldi	r23, 0x00	; 0
     aa4:	22 fb       	bst	r18, 2
     aa6:	44 27       	eor	r20, r20
     aa8:	40 f9       	bld	r20, 0
     aaa:	50 e0       	ldi	r21, 0x00	; 0
     aac:	20 73       	andi	r18, 0x30	; 48
     aae:	30 e0       	ldi	r19, 0x00	; 0
     ab0:	e4 e0       	ldi	r30, 0x04	; 4
     ab2:	35 95       	asr	r19
     ab4:	27 95       	ror	r18
     ab6:	ea 95       	dec	r30
     ab8:	e1 f7       	brne	.-8      	; 0xab2 <Morse_FSM_Update_Config+0x1a>
     aba:	22 30       	cpi	r18, 0x02	; 2
     abc:	31 05       	cpc	r19, r1
     abe:	59 f0       	breq	.+22     	; 0xad6 <Morse_FSM_Update_Config+0x3e>
     ac0:	23 30       	cpi	r18, 0x03	; 3
     ac2:	31 05       	cpc	r19, r1
     ac4:	51 f0       	breq	.+20     	; 0xada <Morse_FSM_Update_Config+0x42>
     ac6:	21 30       	cpi	r18, 0x01	; 1
     ac8:	31 05       	cpc	r19, r1
     aca:	11 f0       	breq	.+4      	; 0xad0 <Morse_FSM_Update_Config+0x38>
     acc:	21 e0       	ldi	r18, 0x01	; 1
     ace:	06 c0       	rjmp	.+12     	; 0xadc <Morse_FSM_Update_Config+0x44>
     ad0:	10 92 e6 01 	sts	0x01E6, r1	; 0x8001e6 <CurrentKeymode>
     ad4:	05 c0       	rjmp	.+10     	; 0xae0 <Morse_FSM_Update_Config+0x48>
     ad6:	22 e0       	ldi	r18, 0x02	; 2
     ad8:	01 c0       	rjmp	.+2      	; 0xadc <Morse_FSM_Update_Config+0x44>
     ada:	23 e0       	ldi	r18, 0x03	; 3
     adc:	20 93 e6 01 	sts	0x01E6, r18	; 0x8001e6 <CurrentKeymode>
     ae0:	67 2b       	or	r22, r23
     ae2:	19 f4       	brne	.+6      	; 0xaea <Morse_FSM_Update_Config+0x52>
     ae4:	10 92 61 02 	sts	0x0261, r1	; 0x800261 <current_paddle_swap>
     ae8:	03 c0       	rjmp	.+6      	; 0xaf0 <Morse_FSM_Update_Config+0x58>
     aea:	21 e0       	ldi	r18, 0x01	; 1
     aec:	20 93 61 02 	sts	0x0261, r18	; 0x800261 <current_paddle_swap>
     af0:	41 30       	cpi	r20, 0x01	; 1
     af2:	51 05       	cpc	r21, r1
     af4:	21 f4       	brne	.+8      	; 0xafe <Morse_FSM_Update_Config+0x66>
     af6:	21 e0       	ldi	r18, 0x01	; 1
     af8:	20 93 1f 01 	sts	0x011F, r18	; 0x80011f <EchoModeOn>
     afc:	02 c0       	rjmp	.+4      	; 0xb02 <Morse_FSM_Update_Config+0x6a>
     afe:	10 92 1f 01 	sts	0x011F, r1	; 0x80011f <EchoModeOn>
     b02:	fc 01       	movw	r30, r24
     b04:	82 81       	ldd	r24, Z+2	; 0x02
     b06:	80 93 20 01 	sts	0x0120, r24	; 0x800120 <current_WPM>
     b0a:	08 95       	ret

00000b0c <Morse_FSM_Get_Buffer_Free>:
     b0c:	8a ef       	ldi	r24, 0xFA	; 250
     b0e:	91 e0       	ldi	r25, 0x01	; 1
     b10:	45 cd       	rjmp	.-1398   	; 0x59c <fifo_get_free_count>

00000b12 <Morse_FSM_Empty_All_Buffer>:
     b12:	8a ef       	ldi	r24, 0xFA	; 250
     b14:	91 e0       	ldi	r25, 0x01	; 1
     b16:	08 dd       	rcall	.-1520   	; 0x528 <fifo_reset>
     b18:	84 e0       	ldi	r24, 0x04	; 4
     b1a:	92 e0       	ldi	r25, 0x02	; 2
     b1c:	05 cd       	rjmp	.-1526   	; 0x528 <fifo_reset>

00000b1e <Morse_FSM_Force_Dit>:
     b1e:	f9 df       	rcall	.-14     	; 0xb12 <Morse_FSM_Empty_All_Buffer>
     b20:	61 e0       	ldi	r22, 0x01	; 1
     b22:	84 e0       	ldi	r24, 0x04	; 4
     b24:	92 e0       	ldi	r25, 0x02	; 2
     b26:	0f cd       	rjmp	.-1506   	; 0x546 <fifo_put>

00000b28 <Morse_FSM_Force_Dah>:
     b28:	f4 df       	rcall	.-24     	; 0xb12 <Morse_FSM_Empty_All_Buffer>
     b2a:	64 e0       	ldi	r22, 0x04	; 4
     b2c:	84 e0       	ldi	r24, 0x04	; 4
     b2e:	92 e0       	ldi	r25, 0x02	; 2
     b30:	0a cd       	rjmp	.-1516   	; 0x546 <fifo_put>

00000b32 <Morse_FSM_Empty_Ascii_Buffer>:
     b32:	8a ef       	ldi	r24, 0xFA	; 250
     b34:	91 e0       	ldi	r25, 0x01	; 1
     b36:	f8 cc       	rjmp	.-1552   	; 0x528 <fifo_reset>

00000b38 <insert_keybyte>:
     b38:	68 2f       	mov	r22, r24
     b3a:	8a ef       	ldi	r24, 0xFA	; 250
     b3c:	91 e0       	ldi	r25, 0x01	; 1
     b3e:	03 cd       	rjmp	.-1530   	; 0x546 <fifo_put>

00000b40 <SetWPM>:
     b40:	81 11       	cpse	r24, r1
     b42:	02 c0       	rjmp	.+4      	; 0xb48 <SetWPM+0x8>
     b44:	81 e0       	ldi	r24, 0x01	; 1
     b46:	03 c0       	rjmp	.+6      	; 0xb4e <SetWPM+0xe>
     b48:	85 36       	cpi	r24, 0x65	; 101
     b4a:	08 f0       	brcs	.+2      	; 0xb4e <SetWPM+0xe>
     b4c:	84 e6       	ldi	r24, 0x64	; 100
     b4e:	80 93 20 01 	sts	0x0120, r24	; 0x800120 <current_WPM>
     b52:	08 95       	ret

00000b54 <__vector_15>:



ISR(TIMER1_COMPA_vect) //Currently uses 99,38us runtime
{
     b54:	1f 92       	push	r1
     b56:	0f 92       	push	r0
     b58:	0f b6       	in	r0, 0x3f	; 63
     b5a:	0f 92       	push	r0
     b5c:	11 24       	eor	r1, r1
     b5e:	cf 92       	push	r12
     b60:	df 92       	push	r13
     b62:	ef 92       	push	r14
     b64:	ff 92       	push	r15
     b66:	0f 93       	push	r16
     b68:	1f 93       	push	r17
     b6a:	2f 93       	push	r18
     b6c:	3f 93       	push	r19
     b6e:	4f 93       	push	r20
     b70:	5f 93       	push	r21
     b72:	6f 93       	push	r22
     b74:	7f 93       	push	r23
     b76:	8f 93       	push	r24
     b78:	9f 93       	push	r25
     b7a:	af 93       	push	r26
     b7c:	bf 93       	push	r27
     b7e:	ef 93       	push	r30
     b80:	ff 93       	push	r31
     b82:	cf 93       	push	r28
     b84:	df 93       	push	r29
     b86:	00 d0       	rcall	.+0      	; 0xb88 <__vector_15+0x34>
     b88:	cd b7       	in	r28, 0x3d	; 61
     b8a:	de b7       	in	r29, 0x3e	; 62
TIMECOUNTERPORT &= ~(TIMECOUNTERPIN1); //Set Pin Low
     b8c:	28 98       	cbi	0x05, 0	; 5
//Small Shine FSM lets do what has to be done....

volatile uint8_t P1=PADDELBIT1;
     b8e:	89 b1       	in	r24, 0x09	; 9
     b90:	90 e0       	ldi	r25, 0x00	; 0
     b92:	80 95       	com	r24
     b94:	90 95       	com	r25
     b96:	86 95       	lsr	r24
     b98:	81 70       	andi	r24, 0x01	; 1
     b9a:	8a 83       	std	Y+2, r24	; 0x02
volatile uint8_t P2=PADDELBIT2;
     b9c:	89 b1       	in	r24, 0x09	; 9
     b9e:	80 95       	com	r24
     ba0:	81 70       	andi	r24, 0x01	; 1
     ba2:	89 83       	std	Y+1, r24	; 0x01

if(current_paddle_swap==NORMAL)
     ba4:	80 91 61 02 	lds	r24, 0x0261	; 0x800261 <current_paddle_swap>
     ba8:	81 11       	cpse	r24, r1
     baa:	0b c0       	rjmp	.+22     	; 0xbc2 <__vector_15+0x6e>
{
	PaddleKeyA=(PaddleKeyA<<1)|P1;
     bac:	80 91 e5 01 	lds	r24, 0x01E5	; 0x8001e5 <PaddleKeyA>
     bb0:	9a 81       	ldd	r25, Y+2	; 0x02
     bb2:	88 0f       	add	r24, r24
     bb4:	89 2b       	or	r24, r25
     bb6:	80 93 e5 01 	sts	0x01E5, r24	; 0x8001e5 <PaddleKeyA>
	PaddleKeyB=(PaddleKeyB<<1)|P2;
     bba:	80 91 e4 01 	lds	r24, 0x01E4	; 0x8001e4 <PaddleKeyB>
     bbe:	99 81       	ldd	r25, Y+1	; 0x01
     bc0:	0a c0       	rjmp	.+20     	; 0xbd6 <__vector_15+0x82>
}
else
{
	PaddleKeyA=(PaddleKeyA<<1)|P2;
     bc2:	80 91 e5 01 	lds	r24, 0x01E5	; 0x8001e5 <PaddleKeyA>
     bc6:	99 81       	ldd	r25, Y+1	; 0x01
     bc8:	88 0f       	add	r24, r24
     bca:	89 2b       	or	r24, r25
     bcc:	80 93 e5 01 	sts	0x01E5, r24	; 0x8001e5 <PaddleKeyA>
	PaddleKeyB=(PaddleKeyB<<1)|P1;
     bd0:	80 91 e4 01 	lds	r24, 0x01E4	; 0x8001e4 <PaddleKeyB>
     bd4:	9a 81       	ldd	r25, Y+2	; 0x02
     bd6:	88 0f       	add	r24, r24
     bd8:	89 2b       	or	r24, r25
     bda:	80 93 e4 01 	sts	0x01E4, r24	; 0x8001e4 <PaddleKeyB>
*/
/*
check if we have some paddleinputs
*/

if(PaddleKeyA==0b01111111) {//PaddleKeyA Pressed
     bde:	80 91 e5 01 	lds	r24, 0x01E5	; 0x8001e5 <PaddleKeyA>
     be2:	8f 37       	cpi	r24, 0x7F	; 127
     be4:	19 f4       	brne	.+6      	; 0xbec <__vector_15+0x98>
	KeyA=PRESSED;
     be6:	10 92 1c 01 	sts	0x011C, r1	; 0x80011c <KeyA>
     bea:	09 c0       	rjmp	.+18     	; 0xbfe <__vector_15+0xaa>
} else if(PaddleKeyA==0b11111111) {//PaddleKeyA Still Pressed
     bec:	80 91 e5 01 	lds	r24, 0x01E5	; 0x8001e5 <PaddleKeyA>
     bf0:	8f 3f       	cpi	r24, 0xFF	; 255
     bf2:	11 f4       	brne	.+4      	; 0xbf8 <__vector_15+0xa4>
	KeyA=STILLPRESSED;
     bf4:	81 e0       	ldi	r24, 0x01	; 1
     bf6:	01 c0       	rjmp	.+2      	; 0xbfa <__vector_15+0xa6>
} else { //Key not or no more pressed
	KeyA=RELEASED;
     bf8:	82 e0       	ldi	r24, 0x02	; 2
     bfa:	80 93 1c 01 	sts	0x011C, r24	; 0x80011c <KeyA>
}
 
if(PaddleKeyB==0b01111111) {//PaddleKeyB Pressed
     bfe:	80 91 e4 01 	lds	r24, 0x01E4	; 0x8001e4 <PaddleKeyB>
     c02:	8f 37       	cpi	r24, 0x7F	; 127
     c04:	19 f4       	brne	.+6      	; 0xc0c <__vector_15+0xb8>
	 KeyB=PRESSED;
     c06:	10 92 1b 01 	sts	0x011B, r1	; 0x80011b <KeyB>
     c0a:	09 c0       	rjmp	.+18     	; 0xc1e <__vector_15+0xca>
} else if(PaddleKeyB==0b11111111) {//PaddleKeyB Still Pressed
     c0c:	80 91 e4 01 	lds	r24, 0x01E4	; 0x8001e4 <PaddleKeyB>
     c10:	8f 3f       	cpi	r24, 0xFF	; 255
     c12:	11 f4       	brne	.+4      	; 0xc18 <__vector_15+0xc4>
	KeyB=STILLPRESSED;
     c14:	81 e0       	ldi	r24, 0x01	; 1
     c16:	01 c0       	rjmp	.+2      	; 0xc1a <__vector_15+0xc6>
} else { //Key not or no more pressed
	KeyB=RELEASED;
     c18:	82 e0       	ldi	r24, 0x02	; 2
     c1a:	80 93 1b 01 	sts	0x011B, r24	; 0x80011b <KeyB>
}

if((KeyB!=RELEASED)||(KeyA!=RELEASED))
     c1e:	80 91 1b 01 	lds	r24, 0x011B	; 0x80011b <KeyB>
     c22:	82 30       	cpi	r24, 0x02	; 2
     c24:	21 f4       	brne	.+8      	; 0xc2e <__vector_15+0xda>
     c26:	80 91 1c 01 	lds	r24, 0x011C	; 0x80011c <KeyA>
     c2a:	82 30       	cpi	r24, 0x02	; 2
     c2c:	19 f0       	breq	.+6      	; 0xc34 <__vector_15+0xe0>
{
	//Okay we change to postwait for at least a DIT....
	FSM_Mode=FSM_Manuall;
     c2e:	81 e0       	ldi	r24, 0x01	; 1
     c30:	80 93 ed 01 	sts	0x01ED, r24	; 0x8001ed <FSM_Mode>
	
}

//Okay our FSM has two modes Automaticmode and Manuallmode
if(FSM_Mode==FSM_Manuall)
     c34:	80 91 ed 01 	lds	r24, 0x01ED	; 0x8001ed <FSM_Mode>
     c38:	81 30       	cpi	r24, 0x01	; 1
     c3a:	09 f0       	breq	.+2      	; 0xc3e <__vector_15+0xea>
     c3c:	8b c1       	rjmp	.+790    	; 0xf54 <__vector_15+0x400>
{
	//Okay we are in automaticmode lets see what has happend...
	if(KeyA==PRESSED) { //We need a DIT here
     c3e:	80 91 1c 01 	lds	r24, 0x011C	; 0x80011c <KeyA>
     c42:	81 11       	cpse	r24, r1
     c44:	04 c0       	rjmp	.+8      	; 0xc4e <__vector_15+0xfa>
		//Okay User pressed a DIT that shall be done....
		fifo_put(&ManualDataQueue,(uint8_t)(DIT_HUMAN));
     c46:	69 e0       	ldi	r22, 0x09	; 9
     c48:	80 ef       	ldi	r24, 0xF0	; 240
     c4a:	91 e0       	ldi	r25, 0x01	; 1
     c4c:	7c dc       	rcall	.-1800   	; 0x546 <fifo_put>
	}
	
	
	if(KeyB==PRESSED) { //We need a mode dependent action
     c4e:	80 91 1b 01 	lds	r24, 0x011B	; 0x80011b <KeyB>
     c52:	81 11       	cpse	r24, r1
     c54:	22 c0       	rjmp	.+68     	; 0xc9a <__vector_15+0x146>
		//Now we need to see what mode we are and what to do
		if(CurrentKeymode!=BUGMODE)
     c56:	80 91 e6 01 	lds	r24, 0x01E6	; 0x8001e6 <CurrentKeymode>
     c5a:	83 30       	cpi	r24, 0x03	; 3
     c5c:	d9 f0       	breq	.+54     	; 0xc94 <__vector_15+0x140>
		//User Presses a DAH that shall be done but, if we are currently transmitting a DIT_HIGH we need to extend that and change the Way of the FSM
		{
			if(FSM_ManualState==DIT_HIGH_HUMAN) {
     c5e:	80 91 eb 01 	lds	r24, 0x01EB	; 0x8001eb <FSM_ManualState>
     c62:	8b 30       	cpi	r24, 0x0B	; 11
     c64:	91 f4       	brne	.+36     	; 0xc8a <__vector_15+0x136>
	
}

static inline uint16_t CalculateDeltaDitDah(void)
{
	return (2400/current_WPM);
     c66:	60 91 20 01 	lds	r22, 0x0120	; 0x800120 <current_WPM>
		//Now we need to see what mode we are and what to do
		if(CurrentKeymode!=BUGMODE)
		//User Presses a DAH that shall be done but, if we are currently transmitting a DIT_HIGH we need to extend that and change the Way of the FSM
		{
			if(FSM_ManualState==DIT_HIGH_HUMAN) {
				FSM_ParameterA+=CalculateDeltaDitDah(); //Extend Dit to Dah
     c6a:	20 91 e9 01 	lds	r18, 0x01E9	; 0x8001e9 <FSM_ParameterA>
     c6e:	30 91 ea 01 	lds	r19, 0x01EA	; 0x8001ea <FSM_ParameterA+0x1>
	
}

static inline uint16_t CalculateDeltaDitDah(void)
{
	return (2400/current_WPM);
     c72:	70 e0       	ldi	r23, 0x00	; 0
     c74:	80 e6       	ldi	r24, 0x60	; 96
     c76:	99 e0       	ldi	r25, 0x09	; 9
     c78:	0e 94 99 0e 	call	0x1d32	; 0x1d32 <__divmodhi4>
		//Now we need to see what mode we are and what to do
		if(CurrentKeymode!=BUGMODE)
		//User Presses a DAH that shall be done but, if we are currently transmitting a DIT_HIGH we need to extend that and change the Way of the FSM
		{
			if(FSM_ManualState==DIT_HIGH_HUMAN) {
				FSM_ParameterA+=CalculateDeltaDitDah(); //Extend Dit to Dah
     c7c:	26 0f       	add	r18, r22
     c7e:	37 1f       	adc	r19, r23
     c80:	30 93 ea 01 	sts	0x01EA, r19	; 0x8001ea <FSM_ParameterA+0x1>
     c84:	20 93 e9 01 	sts	0x01E9, r18	; 0x8001e9 <FSM_ParameterA>
     c88:	08 c0       	rjmp	.+16     	; 0xc9a <__vector_15+0x146>
			} else {
				fifo_put(&ManualDataQueue,(uint8_t)(DAH_HUMAN));	
     c8a:	6c e0       	ldi	r22, 0x0C	; 12
     c8c:	80 ef       	ldi	r24, 0xF0	; 240
     c8e:	91 e0       	ldi	r25, 0x01	; 1
     c90:	5a dc       	rcall	.-1868   	; 0x546 <fifo_put>
     c92:	03 c0       	rjmp	.+6      	; 0xc9a <__vector_15+0x146>
			}
		}else {
		//We are in Bugmode .... So DAH key is altered imidatly and overridesy any FSM Action....
		FSM_ManualState=BUGMODE_DAH_PRESSED;
     c94:	8f e0       	ldi	r24, 0x0F	; 15
     c96:	80 93 eb 01 	sts	0x01EB, r24	; 0x8001eb <FSM_ManualState>
		}
	}
	if((KeyA==STILLPRESSED) && (KeyB==STILLPRESSED))
     c9a:	80 91 1c 01 	lds	r24, 0x011C	; 0x80011c <KeyA>
     c9e:	81 30       	cpi	r24, 0x01	; 1
     ca0:	61 f4       	brne	.+24     	; 0xcba <__vector_15+0x166>
     ca2:	80 91 1b 01 	lds	r24, 0x011B	; 0x80011b <KeyB>
     ca6:	81 30       	cpi	r24, 0x01	; 1
     ca8:	41 f4       	brne	.+16     	; 0xcba <__vector_15+0x166>
	{
		//Both Peddels are pressed mode dependent acton requiered
		//IF we are in Bugmode Paddle B wins!
		if(CurrentKeymode==BUGMODE)
     caa:	80 91 e6 01 	lds	r24, 0x01E6	; 0x8001e6 <CurrentKeymode>
     cae:	83 30       	cpi	r24, 0x03	; 3
     cb0:	41 f4       	brne	.+16     	; 0xcc2 <__vector_15+0x16e>
		{
			FSM_ManualState=BUGMODE_DAH_PRESSED;
     cb2:	8f e0       	ldi	r24, 0x0F	; 15
     cb4:	80 93 eb 01 	sts	0x01EB, r24	; 0x8001eb <FSM_ManualState>
     cb8:	04 c0       	rjmp	.+8      	; 0xcc2 <__vector_15+0x16e>
			
		}
		
		
	} else {
		if(KeyA==STILLPRESSED)
     cba:	80 91 1c 01 	lds	r24, 0x011C	; 0x80011c <KeyA>
		{
			
		}
	
		if(KeyB==STILLPRESSED)
     cbe:	80 91 1b 01 	lds	r24, 0x011B	; 0x80011b <KeyB>
		{
					
		}
	}
	if(KeyB==RELEASED)
     cc2:	80 91 1b 01 	lds	r24, 0x011B	; 0x80011b <KeyB>
     cc6:	82 30       	cpi	r24, 0x02	; 2
     cc8:	71 f4       	brne	.+28     	; 0xce6 <__vector_15+0x192>
	{
		if((CurrentKeymode==BUGMODE) && ( FSM_ManualState==BUGMODE_DAH_PRESSED))
     cca:	80 91 e6 01 	lds	r24, 0x01E6	; 0x8001e6 <CurrentKeymode>
     cce:	83 30       	cpi	r24, 0x03	; 3
     cd0:	51 f4       	brne	.+20     	; 0xce6 <__vector_15+0x192>
     cd2:	80 91 eb 01 	lds	r24, 0x01EB	; 0x8001eb <FSM_ManualState>
     cd6:	8f 30       	cpi	r24, 0x0F	; 15
     cd8:	31 f4       	brne	.+12     	; 0xce6 <__vector_15+0x192>
		{
			FSM_ManualState=BUGMODE_DAH_RELEASED;
     cda:	80 e1       	ldi	r24, 0x10	; 16
     cdc:	80 93 eb 01 	sts	0x01EB, r24	; 0x8001eb <FSM_ManualState>
			fifo_reset(&ManualDataQueue);
     ce0:	80 ef       	ldi	r24, 0xF0	; 240
     ce2:	91 e0       	ldi	r25, 0x01	; 1
     ce4:	21 dc       	rcall	.-1982   	; 0x528 <fifo_reset>
		}
	}
	


	switch(FSM_ManualState)
     ce6:	e0 91 eb 01 	lds	r30, 0x01EB	; 0x8001eb <FSM_ManualState>
     cea:	8e 2f       	mov	r24, r30
     cec:	90 e0       	ldi	r25, 0x00	; 0
     cee:	81 31       	cpi	r24, 0x11	; 17
     cf0:	91 05       	cpc	r25, r1
     cf2:	08 f0       	brcs	.+2      	; 0xcf6 <__vector_15+0x1a2>
     cf4:	8d c2       	rjmp	.+1306   	; 0x1210 <__vector_15+0x6bc>
     cf6:	fc 01       	movw	r30, r24
     cf8:	e1 57       	subi	r30, 0x71	; 113
     cfa:	ff 4f       	sbci	r31, 0xFF	; 255
     cfc:	0c 94 ce 0e 	jmp	0x1d9c	; 0x1d9c <__tablejump2__>
	{
		case IDLE:
		{
			//Here we do sort of nothing....
				if(fifo_get_item_count(&ManualDataQueue)!=0)
     d00:	80 ef       	ldi	r24, 0xF0	; 240
     d02:	91 e0       	ldi	r25, 0x01	; 1
     d04:	48 dc       	rcall	.-1904   	; 0x596 <fifo_get_item_count>
     d06:	88 23       	and	r24, r24
     d08:	99 f0       	breq	.+38     	; 0xd30 <__vector_15+0x1dc>
				{
					FSM_ManualState=(FSMstate_t)fifo_get_nowait(&ManualDataQueue);
     d0a:	80 ef       	ldi	r24, 0xF0	; 240
     d0c:	91 e0       	ldi	r25, 0x01	; 1
     d0e:	39 dc       	rcall	.-1934   	; 0x582 <fifo_get_nowait>
     d10:	80 93 eb 01 	sts	0x01EB, r24	; 0x8001eb <FSM_ManualState>
	return (2400/current_WPM);
}

static inline uint16_t GetTimingHalfDahHigh(void)
{
	return (7200/current_WPM);
     d14:	60 91 20 01 	lds	r22, 0x0120	; 0x800120 <current_WPM>
     d18:	70 e0       	ldi	r23, 0x00	; 0
     d1a:	80 e2       	ldi	r24, 0x20	; 32
     d1c:	9c e1       	ldi	r25, 0x1C	; 28
     d1e:	0e 94 99 0e 	call	0x1d32	; 0x1d32 <__divmodhi4>
		{
			//Here we do sort of nothing....
				if(fifo_get_item_count(&ManualDataQueue)!=0)
				{
					FSM_ManualState=(FSMstate_t)fifo_get_nowait(&ManualDataQueue);
					SwitchBagLevel=GetTimingHalfDahHigh()*2;
     d22:	66 0f       	add	r22, r22
     d24:	77 1f       	adc	r23, r23
     d26:	70 93 ef 01 	sts	0x01EF, r23	; 0x8001ef <SwitchBagLevel+0x1>
     d2a:	60 93 ee 01 	sts	0x01EE, r22	; 0x8001ee <SwitchBagLevel>
     d2e:	70 c2       	rjmp	.+1248   	; 0x1210 <__vector_15+0x6bc>
				}
				else
				{
					SwitchBagLevel--;
     d30:	80 91 ee 01 	lds	r24, 0x01EE	; 0x8001ee <SwitchBagLevel>
     d34:	90 91 ef 01 	lds	r25, 0x01EF	; 0x8001ef <SwitchBagLevel+0x1>
     d38:	01 97       	sbiw	r24, 0x01	; 1
     d3a:	90 93 ef 01 	sts	0x01EF, r25	; 0x8001ef <SwitchBagLevel+0x1>
     d3e:	80 93 ee 01 	sts	0x01EE, r24	; 0x8001ee <SwitchBagLevel>
					if(SwitchBagLevel==0)
     d42:	80 91 ee 01 	lds	r24, 0x01EE	; 0x8001ee <SwitchBagLevel>
     d46:	90 91 ef 01 	lds	r25, 0x01EF	; 0x8001ef <SwitchBagLevel+0x1>
     d4a:	89 2b       	or	r24, r25
     d4c:	09 f0       	breq	.+2      	; 0xd50 <__vector_15+0x1fc>
     d4e:	60 c2       	rjmp	.+1216   	; 0x1210 <__vector_15+0x6bc>
					{
						FSM_Mode=FSM_Automacit;
     d50:	10 92 ed 01 	sts	0x01ED, r1	; 0x8001ed <FSM_Mode>
						Morse_FSM_Empty_All_Buffer();
     d54:	de de       	rcall	.-580    	; 0xb12 <Morse_FSM_Empty_All_Buffer>
     d56:	5c c2       	rjmp	.+1208   	; 0x1210 <__vector_15+0x6bc>
		break;
		
		case BUGMODE_DAH_PRESSED:
		{
			//We don't set a next State...
			KEYOUTPUTHIGH;
     d58:	8b b1       	in	r24, 0x0b	; 11
     d5a:	8f 79       	andi	r24, 0x9F	; 159
     d5c:	58 c2       	rjmp	.+1200   	; 0x120e <__vector_15+0x6ba>
		}
		break;
		
		case BUGMODE_DAH_RELEASED:
		{
			KEYOUTPUTLOW;
     d5e:	8b b1       	in	r24, 0x0b	; 11
     d60:	80 66       	ori	r24, 0x60	; 96
     d62:	8b b9       	out	0x0b, r24	; 11
     d64:	f4 c0       	rjmp	.+488    	; 0xf4e <__vector_15+0x3fa>
		}
		break;
		
		case DIT_HUMAN:
		{
			FSM_ParameterA=0;
     d66:	10 92 ea 01 	sts	0x01EA, r1	; 0x8001ea <FSM_ParameterA+0x1>
     d6a:	10 92 e9 01 	sts	0x01E9, r1	; 0x8001e9 <FSM_ParameterA>
			FSM_ParameterB=0; //Keep in Mind for Low time this state adds one cycle to it....
     d6e:	10 92 e8 01 	sts	0x01E8, r1	; 0x8001e8 <FSM_ParameterB+0x1>
     d72:	10 92 e7 01 	sts	0x01E7, r1	; 0x8001e7 <FSM_ParameterB>
		
			//Okay we got a DIT let's set the OUTPUT for that
			KEYOUTPUTHIGH;
     d76:	8b b1       	in	r24, 0x0b	; 11
     d78:	8f 79       	andi	r24, 0x9F	; 159
     d7a:	8b b9       	out	0x0b, r24	; 11
}

static inline void CalculateTimingDit(volatile uint16_t* ParamA, volatile uint16_t* ParamB)
{
	//Okay we got a WPM setting wich will be translatet in a Dit and Dah Timing
	*ParamA=1200/current_WPM; //Roundingproblem and therfore timingisues will arise .:-(
     d7c:	60 91 20 01 	lds	r22, 0x0120	; 0x800120 <current_WPM>
     d80:	70 e0       	ldi	r23, 0x00	; 0
     d82:	20 eb       	ldi	r18, 0xB0	; 176
     d84:	34 e0       	ldi	r19, 0x04	; 4
     d86:	c9 01       	movw	r24, r18
     d88:	d4 d7       	rcall	.+4008   	; 0x1d32 <__divmodhi4>
     d8a:	70 93 ea 01 	sts	0x01EA, r23	; 0x8001ea <FSM_ParameterA+0x1>
     d8e:	60 93 e9 01 	sts	0x01E9, r22	; 0x8001e9 <FSM_ParameterA>
	*ParamB=1200/current_WPM;
     d92:	60 91 20 01 	lds	r22, 0x0120	; 0x800120 <current_WPM>
     d96:	70 e0       	ldi	r23, 0x00	; 0
     d98:	c9 01       	movw	r24, r18
     d9a:	cb d7       	rcall	.+3990   	; 0x1d32 <__divmodhi4>
     d9c:	70 93 e8 01 	sts	0x01E8, r23	; 0x8001e8 <FSM_ParameterB+0x1>
     da0:	60 93 e7 01 	sts	0x01E7, r22	; 0x8001e7 <FSM_ParameterB>
			CalculateTimingDit(&FSM_ParameterA,&FSM_ParameterB);
			//TODO insert Code for handling the Paddle
		
			//
			//Sainity Check
			if(FSM_ParameterA==0)
     da4:	80 91 e9 01 	lds	r24, 0x01E9	; 0x8001e9 <FSM_ParameterA>
     da8:	90 91 ea 01 	lds	r25, 0x01EA	; 0x8001ea <FSM_ParameterA+0x1>
     dac:	89 2b       	or	r24, r25
     dae:	61 f0       	breq	.+24     	; 0xdc8 <__vector_15+0x274>
				FSM_ManualState=DIT_LOW_HUMAN;
			}
			else
			{
			
				FSM_ManualState=DIT_HIGH_HUMAN;
     db0:	8b e0       	ldi	r24, 0x0B	; 11
     db2:	78 c0       	rjmp	.+240    	; 0xea4 <__vector_15+0x350>
		}
		break;
	
		case DIT_HIGH_HUMAN:
		{
			KEYOUTPUTHIGH;
     db4:	8b b1       	in	r24, 0x0b	; 11
     db6:	8f 79       	andi	r24, 0x9F	; 159
     db8:	8b b9       	out	0x0b, r24	; 11
			if(FSM_ParameterA>0)
     dba:	80 91 e9 01 	lds	r24, 0x01E9	; 0x8001e9 <FSM_ParameterA>
     dbe:	90 91 ea 01 	lds	r25, 0x01EA	; 0x8001ea <FSM_ParameterA+0x1>
     dc2:	89 2b       	or	r24, r25
     dc4:	09 f0       	breq	.+2      	; 0xdc8 <__vector_15+0x274>
     dc6:	ff c1       	rjmp	.+1022   	; 0x11c6 <__vector_15+0x672>
				FSM_ParameterA--;
			}
			else
			{
				
				FSM_ManualState=DIT_LOW_HUMAN;
     dc8:	8a e0       	ldi	r24, 0x0A	; 10
     dca:	b4 c0       	rjmp	.+360    	; 0xf34 <__vector_15+0x3e0>
		}
		break;
		
		case DIT_LOW_HUMAN:
		{
			KEYOUTPUTLOW;
     dcc:	8b b1       	in	r24, 0x0b	; 11
     dce:	80 66       	ori	r24, 0x60	; 96
     dd0:	8b b9       	out	0x0b, r24	; 11
			//If the Machine reaches this state there will be no return
			if(FSM_ParameterB>0)
     dd2:	80 91 e7 01 	lds	r24, 0x01E7	; 0x8001e7 <FSM_ParameterB>
     dd6:	90 91 e8 01 	lds	r25, 0x01E8	; 0x8001e8 <FSM_ParameterB+0x1>
     dda:	89 2b       	or	r24, r25
     ddc:	09 f0       	breq	.+2      	; 0xde0 <__vector_15+0x28c>
     dde:	08 c2       	rjmp	.+1040   	; 0x11f0 <__vector_15+0x69c>
			{
				FSM_ParameterB--;
			}
			else
			{
				if((KeyA==STILLPRESSED)&&(KeyB!=STILLPRESSED))
     de0:	80 91 1c 01 	lds	r24, 0x011C	; 0x80011c <KeyA>
     de4:	81 30       	cpi	r24, 0x01	; 1
     de6:	89 f4       	brne	.+34     	; 0xe0a <__vector_15+0x2b6>
     de8:	80 91 1b 01 	lds	r24, 0x011B	; 0x80011b <KeyB>
     dec:	81 30       	cpi	r24, 0x01	; 1
     dee:	69 f0       	breq	.+26     	; 0xe0a <__vector_15+0x2b6>
				{
					if(CurrentKeymode!=BUGMODE)
     df0:	80 91 e6 01 	lds	r24, 0x01E6	; 0x8001e6 <CurrentKeymode>
     df4:	83 30       	cpi	r24, 0x03	; 3
     df6:	09 f0       	breq	.+2      	; 0xdfa <__vector_15+0x2a6>
     df8:	9c c0       	rjmp	.+312    	; 0xf32 <__vector_15+0x3de>
					{
						FSM_ManualState=DIT_HUMAN;	
					}
					else
					{
						if(CurrentKeymode==ULTIMATIC)
     dfa:	80 91 e6 01 	lds	r24, 0x01E6	; 0x8001e6 <CurrentKeymode>
     dfe:	82 30       	cpi	r24, 0x02	; 2
     e00:	09 f0       	breq	.+2      	; 0xe04 <__vector_15+0x2b0>
     e02:	97 c0       	rjmp	.+302    	; 0xf32 <__vector_15+0x3de>
						{
							ULTIMATIC_EXTENSION=0;
     e04:	10 92 e2 01 	sts	0x01E2, r1	; 0x8001e2 <ULTIMATIC_EXTENSION>
     e08:	94 c0       	rjmp	.+296    	; 0xf32 <__vector_15+0x3de>
						}
						FSM_ManualState=DIT_HUMAN;
					}
						
				} 
				else if((KeyB==STILLPRESSED)&&(KeyA==STILLPRESSED))
     e0a:	80 91 1b 01 	lds	r24, 0x011B	; 0x80011b <KeyB>
     e0e:	81 30       	cpi	r24, 0x01	; 1
     e10:	09 f0       	breq	.+2      	; 0xe14 <__vector_15+0x2c0>
     e12:	9d c0       	rjmp	.+314    	; 0xf4e <__vector_15+0x3fa>
     e14:	80 91 1c 01 	lds	r24, 0x011C	; 0x80011c <KeyA>
     e18:	81 30       	cpi	r24, 0x01	; 1
     e1a:	09 f0       	breq	.+2      	; 0xe1e <__vector_15+0x2ca>
     e1c:	98 c0       	rjmp	.+304    	; 0xf4e <__vector_15+0x3fa>
				{
					//Okay we need to switch the Mode Specific behaviour.....
					if(CurrentKeymode!=BUGMODE)
     e1e:	90 91 e6 01 	lds	r25, 0x01E6	; 0x8001e6 <CurrentKeymode>
     e22:	93 30       	cpi	r25, 0x03	; 3
     e24:	91 f0       	breq	.+36     	; 0xe4a <__vector_15+0x2f6>
					{
						if(CurrentKeymode==ULTIMATIC)
     e26:	90 91 e6 01 	lds	r25, 0x01E6	; 0x8001e6 <CurrentKeymode>
     e2a:	92 30       	cpi	r25, 0x02	; 2
     e2c:	39 f4       	brne	.+14     	; 0xe3c <__vector_15+0x2e8>
						{
							if(ULTIMATIC_EXTENSION==0)
     e2e:	90 91 e2 01 	lds	r25, 0x01E2	; 0x8001e2 <ULTIMATIC_EXTENSION>
     e32:	91 11       	cpse	r25, r1
     e34:	7e c0       	rjmp	.+252    	; 0xf32 <__vector_15+0x3de>
							{
								ULTIMATIC_EXTENSION=1;
     e36:	80 93 e2 01 	sts	0x01E2, r24	; 0x8001e2 <ULTIMATIC_EXTENSION>
     e3a:	73 c0       	rjmp	.+230    	; 0xf22 <__vector_15+0x3ce>
								FSM_ManualState=DIT_HUMAN;
							}
						}
						else
						{
							if(CurrentKeymode==LAMBICB)
     e3c:	90 91 e6 01 	lds	r25, 0x01E6	; 0x8001e6 <CurrentKeymode>
     e40:	91 11       	cpse	r25, r1
     e42:	6f c0       	rjmp	.+222    	; 0xf22 <__vector_15+0x3ce>
							{
								LAMBICB_EXTENSION=1;
     e44:	80 93 e3 01 	sts	0x01E3, r24	; 0x8001e3 <LAMBICB_EXTENSION>
     e48:	6c c0       	rjmp	.+216    	; 0xf22 <__vector_15+0x3ce>
						}
					}
					else
					{
						//In Bugmode not supportet lets go IDLE
						if(LAMBICB_EXTENSION>0)
     e4a:	80 91 e3 01 	lds	r24, 0x01E3	; 0x8001e3 <LAMBICB_EXTENSION>
     e4e:	88 23       	and	r24, r24
     e50:	09 f4       	brne	.+2      	; 0xe54 <__vector_15+0x300>
     e52:	7d c0       	rjmp	.+250    	; 0xf4e <__vector_15+0x3fa>
						{
							FSM_ManualState=DAH_HUMAN;
     e54:	8c e0       	ldi	r24, 0x0C	; 12
     e56:	76 c0       	rjmp	.+236    	; 0xf44 <__vector_15+0x3f0>
		}
		break;
		
		case DAH_HUMAN:
		{
			FSM_ParameterA=0;
     e58:	10 92 ea 01 	sts	0x01EA, r1	; 0x8001ea <FSM_ParameterA+0x1>
     e5c:	10 92 e9 01 	sts	0x01E9, r1	; 0x8001e9 <FSM_ParameterA>
			FSM_ParameterB=0; //Keep in Mind for Low time this state adds one cycle to it....
     e60:	10 92 e8 01 	sts	0x01E8, r1	; 0x8001e8 <FSM_ParameterB+0x1>
     e64:	10 92 e7 01 	sts	0x01E7, r1	; 0x8001e7 <FSM_ParameterB>
			
			//Okay we got a DIT let's set the OUTPUT for that
			KEYOUTPUTHIGH;
     e68:	8b b1       	in	r24, 0x0b	; 11
     e6a:	8f 79       	andi	r24, 0x9F	; 159
     e6c:	8b b9       	out	0x0b, r24	; 11

static inline void CalculateTimingDah(volatile uint16_t* ParamA, volatile uint16_t* ParamB)
{
	//Okay we got a WPM setting wich will be translatet in a Dit and Dah Timing
	//Okay we got a WPM setting wich will be translatet in a Dit and Dah Timing
	*ParamA=3600/current_WPM;
     e6e:	60 91 20 01 	lds	r22, 0x0120	; 0x800120 <current_WPM>
     e72:	70 e0       	ldi	r23, 0x00	; 0
     e74:	80 e1       	ldi	r24, 0x10	; 16
     e76:	9e e0       	ldi	r25, 0x0E	; 14
     e78:	5c d7       	rcall	.+3768   	; 0x1d32 <__divmodhi4>
     e7a:	70 93 ea 01 	sts	0x01EA, r23	; 0x8001ea <FSM_ParameterA+0x1>
     e7e:	60 93 e9 01 	sts	0x01E9, r22	; 0x8001e9 <FSM_ParameterA>
	*ParamB=1200/current_WPM; //Roundingproblem and therfore timingisues will arise .:-(
     e82:	60 91 20 01 	lds	r22, 0x0120	; 0x800120 <current_WPM>
     e86:	70 e0       	ldi	r23, 0x00	; 0
     e88:	80 eb       	ldi	r24, 0xB0	; 176
     e8a:	94 e0       	ldi	r25, 0x04	; 4
     e8c:	52 d7       	rcall	.+3748   	; 0x1d32 <__divmodhi4>
     e8e:	70 93 e8 01 	sts	0x01E8, r23	; 0x8001e8 <FSM_ParameterB+0x1>
     e92:	60 93 e7 01 	sts	0x01E7, r22	; 0x8001e7 <FSM_ParameterB>
			CalculateTimingDah(&FSM_ParameterA,&FSM_ParameterB);
			//TODO insert Code for handling the Paddle
			
			//
			//Sainity Check
			if(FSM_ParameterA==0)
     e96:	80 91 e9 01 	lds	r24, 0x01E9	; 0x8001e9 <FSM_ParameterA>
     e9a:	90 91 ea 01 	lds	r25, 0x01EA	; 0x8001ea <FSM_ParameterA+0x1>
     e9e:	89 2b       	or	r24, r25
     ea0:	71 f0       	breq	.+28     	; 0xebe <__vector_15+0x36a>
				FSM_ManualState=DAH_LOW_HUMAN;
			}
			else
			{
				
				FSM_ManualState=DAH_HIGH_HUMAN;
     ea2:	8e e0       	ldi	r24, 0x0E	; 14
     ea4:	80 93 eb 01 	sts	0x01EB, r24	; 0x8001eb <FSM_ManualState>
     ea8:	8e c1       	rjmp	.+796    	; 0x11c6 <__vector_15+0x672>
		}
		break;
		
		case DAH_HIGH_HUMAN:
		{
			KEYOUTPUTHIGH;
     eaa:	8b b1       	in	r24, 0x0b	; 11
     eac:	8f 79       	andi	r24, 0x9F	; 159
     eae:	8b b9       	out	0x0b, r24	; 11
			if(FSM_ParameterA>0)
     eb0:	80 91 e9 01 	lds	r24, 0x01E9	; 0x8001e9 <FSM_ParameterA>
     eb4:	90 91 ea 01 	lds	r25, 0x01EA	; 0x8001ea <FSM_ParameterA+0x1>
     eb8:	89 2b       	or	r24, r25
     eba:	09 f0       	breq	.+2      	; 0xebe <__vector_15+0x36a>
     ebc:	84 c1       	rjmp	.+776    	; 0x11c6 <__vector_15+0x672>
			{
				FSM_ParameterA--;
			}
			else
			{
				FSM_ManualState=DAH_LOW_HUMAN;
     ebe:	8d e0       	ldi	r24, 0x0D	; 13
     ec0:	39 c0       	rjmp	.+114    	; 0xf34 <__vector_15+0x3e0>
		}
		break;
		
		case DAH_LOW_HUMAN:
		{
			KEYOUTPUTLOW;
     ec2:	8b b1       	in	r24, 0x0b	; 11
     ec4:	80 66       	ori	r24, 0x60	; 96
     ec6:	8b b9       	out	0x0b, r24	; 11
			//If the Machine reaches this state there will be no return
			//If the Machine reaches this state there will be no return
			if(FSM_ParameterB>0)
     ec8:	80 91 e7 01 	lds	r24, 0x01E7	; 0x8001e7 <FSM_ParameterB>
     ecc:	90 91 e8 01 	lds	r25, 0x01E8	; 0x8001e8 <FSM_ParameterB+0x1>
     ed0:	89 2b       	or	r24, r25
     ed2:	09 f0       	breq	.+2      	; 0xed6 <__vector_15+0x382>
     ed4:	8d c1       	rjmp	.+794    	; 0x11f0 <__vector_15+0x69c>
			{
				FSM_ParameterB--;
			}
			else
			{
				if((KeyB==STILLPRESSED)&&(KeyA!=STILLPRESSED))
     ed6:	80 91 1b 01 	lds	r24, 0x011B	; 0x80011b <KeyB>
     eda:	81 30       	cpi	r24, 0x01	; 1
     edc:	59 f4       	brne	.+22     	; 0xef4 <__vector_15+0x3a0>
     ede:	80 91 1c 01 	lds	r24, 0x011C	; 0x80011c <KeyA>
     ee2:	81 30       	cpi	r24, 0x01	; 1
     ee4:	39 f0       	breq	.+14     	; 0xef4 <__vector_15+0x3a0>
				{
					if(CurrentKeymode==ULTIMATIC)
     ee6:	80 91 e6 01 	lds	r24, 0x01E6	; 0x8001e6 <CurrentKeymode>
     eea:	82 30       	cpi	r24, 0x02	; 2
     eec:	d1 f4       	brne	.+52     	; 0xf22 <__vector_15+0x3ce>
					{
						ULTIMATIC_EXTENSION=0;
     eee:	10 92 e2 01 	sts	0x01E2, r1	; 0x8001e2 <ULTIMATIC_EXTENSION>
     ef2:	17 c0       	rjmp	.+46     	; 0xf22 <__vector_15+0x3ce>
					}
					FSM_ManualState=DAH_HUMAN;
				}
				else if((KeyB==STILLPRESSED)&&(KeyA==STILLPRESSED))
     ef4:	80 91 1b 01 	lds	r24, 0x011B	; 0x80011b <KeyB>
     ef8:	81 30       	cpi	r24, 0x01	; 1
     efa:	f9 f4       	brne	.+62     	; 0xf3a <__vector_15+0x3e6>
     efc:	80 91 1c 01 	lds	r24, 0x011C	; 0x80011c <KeyA>
     f00:	81 30       	cpi	r24, 0x01	; 1
     f02:	d9 f4       	brne	.+54     	; 0xf3a <__vector_15+0x3e6>
				{
						
					//Okay we need to switch the Mode Specific behaviour.....
					if(CurrentKeymode!=BUGMODE)
     f04:	90 91 e6 01 	lds	r25, 0x01E6	; 0x8001e6 <CurrentKeymode>
     f08:	93 30       	cpi	r25, 0x03	; 3
     f0a:	09 f1       	breq	.+66     	; 0xf4e <__vector_15+0x3fa>
					{
						if(CurrentKeymode==ULTIMATIC)
     f0c:	90 91 e6 01 	lds	r25, 0x01E6	; 0x8001e6 <CurrentKeymode>
     f10:	92 30       	cpi	r25, 0x02	; 2
     f12:	49 f4       	brne	.+18     	; 0xf26 <__vector_15+0x3d2>
						{
							if(ULTIMATIC_EXTENSION==0)
     f14:	90 91 e2 01 	lds	r25, 0x01E2	; 0x8001e2 <ULTIMATIC_EXTENSION>
     f18:	91 11       	cpse	r25, r1
     f1a:	03 c0       	rjmp	.+6      	; 0xf22 <__vector_15+0x3ce>
							{
								ULTIMATIC_EXTENSION=1;
     f1c:	80 93 e2 01 	sts	0x01E2, r24	; 0x8001e2 <ULTIMATIC_EXTENSION>
     f20:	08 c0       	rjmp	.+16     	; 0xf32 <__vector_15+0x3de>
								FSM_ManualState=DIT_HUMAN;
							}
							else
							{
								FSM_ManualState=DAH_HUMAN;
     f22:	8c e0       	ldi	r24, 0x0C	; 12
     f24:	07 c0       	rjmp	.+14     	; 0xf34 <__vector_15+0x3e0>
							}
						}
						else
						{
							if(CurrentKeymode==LAMBICB)
     f26:	90 91 e6 01 	lds	r25, 0x01E6	; 0x8001e6 <CurrentKeymode>
     f2a:	91 11       	cpse	r25, r1
     f2c:	02 c0       	rjmp	.+4      	; 0xf32 <__vector_15+0x3de>
							{
								LAMBICB_EXTENSION=1;
     f2e:	80 93 e3 01 	sts	0x01E3, r24	; 0x8001e3 <LAMBICB_EXTENSION>
							}
							FSM_ManualState=DIT_HUMAN;
     f32:	89 e0       	ldi	r24, 0x09	; 9
     f34:	80 93 eb 01 	sts	0x01EB, r24	; 0x8001eb <FSM_ManualState>
     f38:	6b c1       	rjmp	.+726    	; 0x1210 <__vector_15+0x6bc>
					
				}
				else
				{
					//In Bugmode not supportet lets go IDLE
					if(LAMBICB_EXTENSION>0)
     f3a:	80 91 e3 01 	lds	r24, 0x01E3	; 0x8001e3 <LAMBICB_EXTENSION>
     f3e:	88 23       	and	r24, r24
     f40:	31 f0       	breq	.+12     	; 0xf4e <__vector_15+0x3fa>
					{
						FSM_ManualState=DIT_HUMAN;
     f42:	89 e0       	ldi	r24, 0x09	; 9
     f44:	80 93 eb 01 	sts	0x01EB, r24	; 0x8001eb <FSM_ManualState>
						LAMBICB_EXTENSION=0;
     f48:	10 92 e3 01 	sts	0x01E3, r1	; 0x8001e3 <LAMBICB_EXTENSION>
     f4c:	61 c1       	rjmp	.+706    	; 0x1210 <__vector_15+0x6bc>
					}
					else
					{
						FSM_ManualState=IDLE;
     f4e:	10 92 eb 01 	sts	0x01EB, r1	; 0x8001eb <FSM_ManualState>
     f52:	5e c1       	rjmp	.+700    	; 0x1210 <__vector_15+0x6bc>
	
}
else
{

		switch(FSM_State) //This FSM is for automaticmode only and dosn't handle manual input
     f54:	e0 91 ec 01 	lds	r30, 0x01EC	; 0x8001ec <FSM_State>
     f58:	8e 2f       	mov	r24, r30
     f5a:	90 e0       	ldi	r25, 0x00	; 0
     f5c:	83 31       	cpi	r24, 0x13	; 19
     f5e:	91 05       	cpc	r25, r1
     f60:	08 f0       	brcs	.+2      	; 0xf64 <__vector_15+0x410>
     f62:	53 c1       	rjmp	.+678    	; 0x120a <__vector_15+0x6b6>
     f64:	fc 01       	movw	r30, r24
     f66:	e0 56       	subi	r30, 0x60	; 96
     f68:	ff 4f       	sbci	r31, 0xFF	; 255
     f6a:	18 c7       	rjmp	.+3632   	; 0x1d9c <__tablejump2__>
		{
			case IDLE:
			{
				KEYOUTPUTLOW;
     f6c:	8b b1       	in	r24, 0x0b	; 11
     f6e:	80 66       	ori	r24, 0x60	; 96
     f70:	8b b9       	out	0x0b, r24	; 11
				//Lets see what is in our TODO List
				if((fifo_get_item_count(&FSM_Queue)==0))
     f72:	84 e0       	ldi	r24, 0x04	; 4
     f74:	92 e0       	ldi	r25, 0x02	; 2
     f76:	0f db       	rcall	.-2530   	; 0x596 <fifo_get_item_count>
     f78:	81 11       	cpse	r24, r1
     f7a:	62 c0       	rjmp	.+196    	; 0x1040 <__vector_15+0x4ec>
				{
					if(EchoModeOn==1)
     f7c:	80 91 1f 01 	lds	r24, 0x011F	; 0x80011f <EchoModeOn>
     f80:	81 30       	cpi	r24, 0x01	; 1
     f82:	a9 f4       	brne	.+42     	; 0xfae <__vector_15+0x45a>
					{
						if(TXChar>=0)
     f84:	80 91 1d 01 	lds	r24, 0x011D	; 0x80011d <TXChar>
     f88:	90 91 1e 01 	lds	r25, 0x011E	; 0x80011e <TXChar+0x1>
     f8c:	97 fd       	sbrc	r25, 7
     f8e:	0f c0       	rjmp	.+30     	; 0xfae <__vector_15+0x45a>
						{
							fifo_put(EchoBuffer,(uint8_t)TXChar);
     f90:	60 91 1d 01 	lds	r22, 0x011D	; 0x80011d <TXChar>
     f94:	70 91 1e 01 	lds	r23, 0x011E	; 0x80011e <TXChar+0x1>
     f98:	80 91 1f 02 	lds	r24, 0x021F	; 0x80021f <EchoBuffer>
     f9c:	90 91 20 02 	lds	r25, 0x0220	; 0x800220 <EchoBuffer+0x1>
     fa0:	d2 da       	rcall	.-2652   	; 0x546 <fifo_put>
							TXChar=-1;
     fa2:	8f ef       	ldi	r24, 0xFF	; 255
     fa4:	9f ef       	ldi	r25, 0xFF	; 255
     fa6:	90 93 1e 01 	sts	0x011E, r25	; 0x80011e <TXChar+0x1>
     faa:	80 93 1d 01 	sts	0x011D, r24	; 0x80011d <TXChar>
						}
					}
					//Our Buffer is empty lets refill it.....
					//Is there something that we can send?
					if(fifo_get_item_count(&AsciiQueue)!=0)
     fae:	8a ef       	ldi	r24, 0xFA	; 250
     fb0:	91 e0       	ldi	r25, 0x01	; 1
     fb2:	f1 da       	rcall	.-2590   	; 0x596 <fifo_get_item_count>
     fb4:	88 23       	and	r24, r24
     fb6:	09 f4       	brne	.+2      	; 0xfba <__vector_15+0x466>
     fb8:	43 c0       	rjmp	.+134    	; 0x1040 <__vector_15+0x4ec>
					{
						TXChar=(uint8_t)fifo_get_nowait(&AsciiQueue);
     fba:	8a ef       	ldi	r24, 0xFA	; 250
     fbc:	91 e0       	ldi	r25, 0x01	; 1
     fbe:	e1 da       	rcall	.-2622   	; 0x582 <fifo_get_nowait>
     fc0:	99 27       	eor	r25, r25
     fc2:	90 93 1e 01 	sts	0x011E, r25	; 0x80011e <TXChar+0x1>
     fc6:	80 93 1d 01 	sts	0x011D, r24	; 0x80011d <TXChar>
						if (TXChar == ' ')
     fca:	80 91 1d 01 	lds	r24, 0x011D	; 0x80011d <TXChar>
     fce:	90 91 1e 01 	lds	r25, 0x011E	; 0x80011e <TXChar+0x1>
     fd2:	80 97       	sbiw	r24, 0x20	; 32
     fd4:	81 f4       	brne	.+32     	; 0xff6 <__vector_15+0x4a2>
}

static inline void CalculateTimingSpace(volatile uint16_t* ParamA, volatile uint16_t* ParamB)
{
	//Okay we got a WPM setting wich will be translatet in a Dit and Dah Timing
	*ParamA=0;
     fd6:	10 92 ea 01 	sts	0x01EA, r1	; 0x8001ea <FSM_ParameterA+0x1>
     fda:	10 92 e9 01 	sts	0x01E9, r1	; 0x8001e9 <FSM_ParameterA>
	*ParamB=8400/current_WPM;
     fde:	60 91 20 01 	lds	r22, 0x0120	; 0x800120 <current_WPM>
     fe2:	70 e0       	ldi	r23, 0x00	; 0
     fe4:	80 ed       	ldi	r24, 0xD0	; 208
     fe6:	90 e2       	ldi	r25, 0x20	; 32
     fe8:	a4 d6       	rcall	.+3400   	; 0x1d32 <__divmodhi4>
     fea:	70 93 e8 01 	sts	0x01E8, r23	; 0x8001e8 <FSM_ParameterB+0x1>
     fee:	60 93 e7 01 	sts	0x01E7, r22	; 0x8001e7 <FSM_ParameterB>
					{
						TXChar=(uint8_t)fifo_get_nowait(&AsciiQueue);
						if (TXChar == ' ')
						{
							CalculateTimingSpace(&FSM_ParameterA,&FSM_ParameterB);
							fifo_put(&FSM_Queue,SPACE_MACHINE);
     ff2:	67 e0       	ldi	r22, 0x07	; 7
     ff4:	22 c0       	rjmp	.+68     	; 0x103a <__vector_15+0x4e6>
						}
						else
						{
							morsechar_t mc=CharToMorse(TXChar);
     ff6:	80 91 1d 01 	lds	r24, 0x011D	; 0x80011d <TXChar>
     ffa:	90 91 1e 01 	lds	r25, 0x011E	; 0x80011e <TXChar+0x1>
     ffe:	01 dd       	rcall	.-1534   	; 0xa02 <CharToMorse>
    1000:	09 2f       	mov	r16, r25
							//Now we need to get mc into the queue
							for(uint8_t i=0;i<mc.lenght;i++)
    1002:	10 e0       	ldi	r17, 0x00	; 0
							{
								if((mc.morsecode&(1<<i))>0)
    1004:	cc 24       	eor	r12, r12
    1006:	c3 94       	inc	r12
    1008:	d1 2c       	mov	r13, r1
    100a:	e8 2e       	mov	r14, r24
    100c:	f1 2c       	mov	r15, r1
						}
						else
						{
							morsechar_t mc=CharToMorse(TXChar);
							//Now we need to get mc into the queue
							for(uint8_t i=0;i<mc.lenght;i++)
    100e:	10 17       	cp	r17, r16
    1010:	98 f4       	brcc	.+38     	; 0x1038 <__vector_15+0x4e4>
							{
								if((mc.morsecode&(1<<i))>0)
    1012:	c6 01       	movw	r24, r12
    1014:	01 2e       	mov	r0, r17
    1016:	02 c0       	rjmp	.+4      	; 0x101c <__vector_15+0x4c8>
    1018:	88 0f       	add	r24, r24
    101a:	99 1f       	adc	r25, r25
    101c:	0a 94       	dec	r0
    101e:	e2 f7       	brpl	.-8      	; 0x1018 <__vector_15+0x4c4>
    1020:	8e 21       	and	r24, r14
    1022:	9f 21       	and	r25, r15
    1024:	89 2b       	or	r24, r25
    1026:	11 f0       	breq	.+4      	; 0x102c <__vector_15+0x4d8>
								{
									fifo_put(&FSM_Queue,DAH_MACHINE);
    1028:	64 e0       	ldi	r22, 0x04	; 4
    102a:	01 c0       	rjmp	.+2      	; 0x102e <__vector_15+0x4da>
								}
								else
								{
									fifo_put(&FSM_Queue,DIT_MACHINE);
    102c:	61 e0       	ldi	r22, 0x01	; 1
    102e:	84 e0       	ldi	r24, 0x04	; 4
    1030:	92 e0       	ldi	r25, 0x02	; 2
    1032:	89 da       	rcall	.-2798   	; 0x546 <fifo_put>
						}
						else
						{
							morsechar_t mc=CharToMorse(TXChar);
							//Now we need to get mc into the queue
							for(uint8_t i=0;i<mc.lenght;i++)
    1034:	1f 5f       	subi	r17, 0xFF	; 255
    1036:	eb cf       	rjmp	.-42     	; 0x100e <__vector_15+0x4ba>
								else
								{
									fifo_put(&FSM_Queue,DIT_MACHINE);
								}
							}
							fifo_put(&FSM_Queue,LETTERPAUSE_MACHINE);
    1038:	61 e1       	ldi	r22, 0x11	; 17
    103a:	84 e0       	ldi	r24, 0x04	; 4
    103c:	92 e0       	ldi	r25, 0x02	; 2
    103e:	83 da       	rcall	.-2810   	; 0x546 <fifo_put>
				
					
					
					//Get a Char from our Char Buffer if needed....	
				}
				if(fifo_get_item_count(&FSM_Queue)>0)
    1040:	84 e0       	ldi	r24, 0x04	; 4
    1042:	92 e0       	ldi	r25, 0x02	; 2
    1044:	a8 da       	rcall	.-2736   	; 0x596 <fifo_get_item_count>
    1046:	88 23       	and	r24, r24
    1048:	09 f4       	brne	.+2      	; 0x104c <__vector_15+0x4f8>
    104a:	e2 c0       	rjmp	.+452    	; 0x1210 <__vector_15+0x6bc>
				{
					FSM_State=fifo_get_nowait(&FSM_Queue);
    104c:	84 e0       	ldi	r24, 0x04	; 4
    104e:	92 e0       	ldi	r25, 0x02	; 2
    1050:	98 da       	rcall	.-2768   	; 0x582 <fifo_get_nowait>
    1052:	80 93 ec 01 	sts	0x01EC, r24	; 0x8001ec <FSM_State>
					/*
					//Okay Now we need to calculate the Timing.....
					*/
					switch(FSM_State)
    1056:	80 91 ec 01 	lds	r24, 0x01EC	; 0x8001ec <FSM_State>
    105a:	84 30       	cpi	r24, 0x04	; 4
    105c:	09 f4       	brne	.+2      	; 0x1060 <__vector_15+0x50c>
    105e:	52 c0       	rjmp	.+164    	; 0x1104 <__vector_15+0x5b0>
    1060:	18 f4       	brcc	.+6      	; 0x1068 <__vector_15+0x514>
    1062:	81 30       	cpi	r24, 0x01	; 1
    1064:	29 f1       	breq	.+74     	; 0x10b0 <__vector_15+0x55c>
    1066:	9d c0       	rjmp	.+314    	; 0x11a2 <__vector_15+0x64e>
    1068:	87 30       	cpi	r24, 0x07	; 7
    106a:	09 f4       	brne	.+2      	; 0x106e <__vector_15+0x51a>
    106c:	75 c0       	rjmp	.+234    	; 0x1158 <__vector_15+0x604>
    106e:	81 31       	cpi	r24, 0x11	; 17
    1070:	09 f0       	breq	.+2      	; 0x1074 <__vector_15+0x520>
    1072:	97 c0       	rjmp	.+302    	; 0x11a2 <__vector_15+0x64e>
						}
						break;

						case LETTERPAUSE_MACHINE:
						{
							FSM_ParameterA=0;
    1074:	10 92 ea 01 	sts	0x01EA, r1	; 0x8001ea <FSM_ParameterA+0x1>
    1078:	10 92 e9 01 	sts	0x01E9, r1	; 0x8001e9 <FSM_ParameterA>
							FSM_ParameterB=0; //Keep in Mind for Low time this state adds one cycle to it....
    107c:	10 92 e8 01 	sts	0x01E8, r1	; 0x8001e8 <FSM_ParameterB+0x1>
    1080:	10 92 e7 01 	sts	0x01E7, r1	; 0x8001e7 <FSM_ParameterB>
}

static inline void CalculateTimingDit(volatile uint16_t* ParamA, volatile uint16_t* ParamB)
{
	//Okay we got a WPM setting wich will be translatet in a Dit and Dah Timing
	*ParamA=1200/current_WPM; //Roundingproblem and therfore timingisues will arise .:-(
    1084:	60 91 20 01 	lds	r22, 0x0120	; 0x800120 <current_WPM>
    1088:	70 e0       	ldi	r23, 0x00	; 0
    108a:	20 eb       	ldi	r18, 0xB0	; 176
    108c:	34 e0       	ldi	r19, 0x04	; 4
    108e:	c9 01       	movw	r24, r18
    1090:	50 d6       	rcall	.+3232   	; 0x1d32 <__divmodhi4>
    1092:	70 93 ea 01 	sts	0x01EA, r23	; 0x8001ea <FSM_ParameterA+0x1>
    1096:	60 93 e9 01 	sts	0x01E9, r22	; 0x8001e9 <FSM_ParameterA>
	*ParamB=1200/current_WPM;
    109a:	60 91 20 01 	lds	r22, 0x0120	; 0x800120 <current_WPM>
    109e:	70 e0       	ldi	r23, 0x00	; 0
    10a0:	c9 01       	movw	r24, r18
    10a2:	47 d6       	rcall	.+3214   	; 0x1d32 <__divmodhi4>
    10a4:	70 93 e8 01 	sts	0x01E8, r23	; 0x8001e8 <FSM_ParameterB+0x1>
    10a8:	60 93 e7 01 	sts	0x01E7, r22	; 0x8001e7 <FSM_ParameterB>
						case LETTERPAUSE_MACHINE:
						{
							FSM_ParameterA=0;
							FSM_ParameterB=0; //Keep in Mind for Low time this state adds one cycle to it....
							CalculateTimingDit(&FSM_ParameterA,&FSM_ParameterB);
							FSM_State=PAUSE_LETTERS;
    10ac:	82 e1       	ldi	r24, 0x12	; 18
    10ae:	76 c0       	rjmp	.+236    	; 0x119c <__vector_15+0x648>
					*/
					switch(FSM_State)
					{
						case DIT_MACHINE:
						{
							FSM_ParameterA=0;
    10b0:	10 92 ea 01 	sts	0x01EA, r1	; 0x8001ea <FSM_ParameterA+0x1>
    10b4:	10 92 e9 01 	sts	0x01E9, r1	; 0x8001e9 <FSM_ParameterA>
							FSM_ParameterB=0; //Keep in Mind for Low time this state adds one cycle to it....
    10b8:	10 92 e8 01 	sts	0x01E8, r1	; 0x8001e8 <FSM_ParameterB+0x1>
    10bc:	10 92 e7 01 	sts	0x01E7, r1	; 0x8001e7 <FSM_ParameterB>
						
							//Okay we got a DIT let's set the OUTPUT for that
							KEYOUTPUTHIGH;
    10c0:	8b b1       	in	r24, 0x0b	; 11
    10c2:	8f 79       	andi	r24, 0x9F	; 159
    10c4:	8b b9       	out	0x0b, r24	; 11
}

static inline void CalculateTimingDit(volatile uint16_t* ParamA, volatile uint16_t* ParamB)
{
	//Okay we got a WPM setting wich will be translatet in a Dit and Dah Timing
	*ParamA=1200/current_WPM; //Roundingproblem and therfore timingisues will arise .:-(
    10c6:	60 91 20 01 	lds	r22, 0x0120	; 0x800120 <current_WPM>
    10ca:	70 e0       	ldi	r23, 0x00	; 0
    10cc:	20 eb       	ldi	r18, 0xB0	; 176
    10ce:	34 e0       	ldi	r19, 0x04	; 4
    10d0:	c9 01       	movw	r24, r18
    10d2:	2f d6       	rcall	.+3166   	; 0x1d32 <__divmodhi4>
    10d4:	70 93 ea 01 	sts	0x01EA, r23	; 0x8001ea <FSM_ParameterA+0x1>
    10d8:	60 93 e9 01 	sts	0x01E9, r22	; 0x8001e9 <FSM_ParameterA>
	*ParamB=1200/current_WPM;
    10dc:	60 91 20 01 	lds	r22, 0x0120	; 0x800120 <current_WPM>
    10e0:	70 e0       	ldi	r23, 0x00	; 0
    10e2:	c9 01       	movw	r24, r18
    10e4:	26 d6       	rcall	.+3148   	; 0x1d32 <__divmodhi4>
    10e6:	70 93 e8 01 	sts	0x01E8, r23	; 0x8001e8 <FSM_ParameterB+0x1>
    10ea:	60 93 e7 01 	sts	0x01E7, r22	; 0x8001e7 <FSM_ParameterB>
							CalculateTimingDit(&FSM_ParameterA,&FSM_ParameterB);
							//TODO insert Code for handling the Paddle
			
							//
							//Sainity Check
							if(FSM_ParameterA==0)
    10ee:	80 91 e9 01 	lds	r24, 0x01E9	; 0x8001e9 <FSM_ParameterA>
    10f2:	90 91 ea 01 	lds	r25, 0x01EA	; 0x8001ea <FSM_ParameterA+0x1>
    10f6:	89 2b       	or	r24, r25
    10f8:	09 f4       	brne	.+2      	; 0x10fc <__vector_15+0x5a8>
    10fa:	4f c0       	rjmp	.+158    	; 0x119a <__vector_15+0x646>
								FSM_State=DIT_LOW_MACHINE;
							}
							else
							{
							
								FSM_State=DIT_HIGH_MACHINE;
    10fc:	83 e0       	ldi	r24, 0x03	; 3
    10fe:	80 93 ec 01 	sts	0x01EC, r24	; 0x8001ec <FSM_State>
    1102:	61 c0       	rjmp	.+194    	; 0x11c6 <__vector_15+0x672>
						break;
						
					
						case DAH_MACHINE:
						{
							FSM_ParameterA=0;
    1104:	10 92 ea 01 	sts	0x01EA, r1	; 0x8001ea <FSM_ParameterA+0x1>
    1108:	10 92 e9 01 	sts	0x01E9, r1	; 0x8001e9 <FSM_ParameterA>
							FSM_ParameterB=0; //Keep in Mind for Low time this state adds one cycle to it....
    110c:	10 92 e8 01 	sts	0x01E8, r1	; 0x8001e8 <FSM_ParameterB+0x1>
    1110:	10 92 e7 01 	sts	0x01E7, r1	; 0x8001e7 <FSM_ParameterB>
						
							//Okay we got a DIT let's set the OUTPUT for that
							KEYOUTPUTHIGH;
    1114:	8b b1       	in	r24, 0x0b	; 11
    1116:	8f 79       	andi	r24, 0x9F	; 159
    1118:	8b b9       	out	0x0b, r24	; 11

static inline void CalculateTimingDah(volatile uint16_t* ParamA, volatile uint16_t* ParamB)
{
	//Okay we got a WPM setting wich will be translatet in a Dit and Dah Timing
	//Okay we got a WPM setting wich will be translatet in a Dit and Dah Timing
	*ParamA=3600/current_WPM;
    111a:	60 91 20 01 	lds	r22, 0x0120	; 0x800120 <current_WPM>
    111e:	70 e0       	ldi	r23, 0x00	; 0
    1120:	80 e1       	ldi	r24, 0x10	; 16
    1122:	9e e0       	ldi	r25, 0x0E	; 14
    1124:	06 d6       	rcall	.+3084   	; 0x1d32 <__divmodhi4>
    1126:	70 93 ea 01 	sts	0x01EA, r23	; 0x8001ea <FSM_ParameterA+0x1>
    112a:	60 93 e9 01 	sts	0x01E9, r22	; 0x8001e9 <FSM_ParameterA>
	*ParamB=1200/current_WPM; //Roundingproblem and therfore timingisues will arise .:-(
    112e:	60 91 20 01 	lds	r22, 0x0120	; 0x800120 <current_WPM>
    1132:	70 e0       	ldi	r23, 0x00	; 0
    1134:	80 eb       	ldi	r24, 0xB0	; 176
    1136:	94 e0       	ldi	r25, 0x04	; 4
    1138:	fc d5       	rcall	.+3064   	; 0x1d32 <__divmodhi4>
    113a:	70 93 e8 01 	sts	0x01E8, r23	; 0x8001e8 <FSM_ParameterB+0x1>
    113e:	60 93 e7 01 	sts	0x01E7, r22	; 0x8001e7 <FSM_ParameterB>
							CalculateTimingDah(&FSM_ParameterA,&FSM_ParameterB);
							//TODO insert Code for handling the Paddle
						
							//
							//Sainity Check
							if(FSM_ParameterB==0)
    1142:	80 91 e7 01 	lds	r24, 0x01E7	; 0x8001e7 <FSM_ParameterB>
    1146:	90 91 e8 01 	lds	r25, 0x01E8	; 0x8001e8 <FSM_ParameterB+0x1>
    114a:	89 2b       	or	r24, r25
    114c:	09 f4       	brne	.+2      	; 0x1150 <__vector_15+0x5fc>
    114e:	45 c0       	rjmp	.+138    	; 0x11da <__vector_15+0x686>
								FSM_State=DAH_LOW_MACHINE;
							}
							else
							{
							
								FSM_State=DAH_HIGH_MACHINE;
    1150:	86 e0       	ldi	r24, 0x06	; 6
    1152:	80 93 ec 01 	sts	0x01EC, r24	; 0x8001ec <FSM_State>
    1156:	4c c0       	rjmp	.+152    	; 0x11f0 <__vector_15+0x69c>
						break;
						//Unused State, just to keep warnings away
					
						case SPACE_MACHINE:
						{
							FSM_ParameterA=0;
    1158:	10 92 ea 01 	sts	0x01EA, r1	; 0x8001ea <FSM_ParameterA+0x1>
    115c:	10 92 e9 01 	sts	0x01E9, r1	; 0x8001e9 <FSM_ParameterA>
							FSM_ParameterB=0; //Keep in Mind for Low time this state adds one cycle to it....
    1160:	10 92 e8 01 	sts	0x01E8, r1	; 0x8001e8 <FSM_ParameterB+0x1>
    1164:	10 92 e7 01 	sts	0x01E7, r1	; 0x8001e7 <FSM_ParameterB>
}

static inline void CalculateTimingSpace(volatile uint16_t* ParamA, volatile uint16_t* ParamB)
{
	//Okay we got a WPM setting wich will be translatet in a Dit and Dah Timing
	*ParamA=0;
    1168:	10 92 ea 01 	sts	0x01EA, r1	; 0x8001ea <FSM_ParameterA+0x1>
    116c:	10 92 e9 01 	sts	0x01E9, r1	; 0x8001e9 <FSM_ParameterA>
	*ParamB=8400/current_WPM;
    1170:	60 91 20 01 	lds	r22, 0x0120	; 0x800120 <current_WPM>
    1174:	70 e0       	ldi	r23, 0x00	; 0
    1176:	80 ed       	ldi	r24, 0xD0	; 208
    1178:	90 e2       	ldi	r25, 0x20	; 32
    117a:	db d5       	rcall	.+2998   	; 0x1d32 <__divmodhi4>
    117c:	70 93 e8 01 	sts	0x01E8, r23	; 0x8001e8 <FSM_ParameterB+0x1>
    1180:	60 93 e7 01 	sts	0x01E7, r22	; 0x8001e7 <FSM_ParameterB>
						case SPACE_MACHINE:
						{
							FSM_ParameterA=0;
							FSM_ParameterB=0; //Keep in Mind for Low time this state adds one cycle to it....
							CalculateTimingSpace(&FSM_ParameterA,&FSM_ParameterB);
							FSM_State=DO_SPACE_MACHINE;
    1184:	88 e0       	ldi	r24, 0x08	; 8
    1186:	0a c0       	rjmp	.+20     	; 0x119c <__vector_15+0x648>
			break;
		
			case DIT_HIGH_MACHINE:
			{
				//KEYOUTPUTHIGH;
				KEYOUTPUTHIGH;
    1188:	8b b1       	in	r24, 0x0b	; 11
    118a:	8f 79       	andi	r24, 0x9F	; 159
    118c:	8b b9       	out	0x0b, r24	; 11
				//Okay we need to decrese
				if(FSM_ParameterA>0)
    118e:	80 91 e9 01 	lds	r24, 0x01E9	; 0x8001e9 <FSM_ParameterA>
    1192:	90 91 ea 01 	lds	r25, 0x01EA	; 0x8001ea <FSM_ParameterA+0x1>
    1196:	89 2b       	or	r24, r25
    1198:	b1 f4       	brne	.+44     	; 0x11c6 <__vector_15+0x672>
				{
					FSM_ParameterA--;
				}			
				else //We are done here
				{
					FSM_State=DIT_LOW_MACHINE;
    119a:	82 e0       	ldi	r24, 0x02	; 2
						case LETTERPAUSE_MACHINE:
						{
							FSM_ParameterA=0;
							FSM_ParameterB=0; //Keep in Mind for Low time this state adds one cycle to it....
							CalculateTimingDit(&FSM_ParameterA,&FSM_ParameterB);
							FSM_State=PAUSE_LETTERS;
    119c:	80 93 ec 01 	sts	0x01EC, r24	; 0x8001ec <FSM_State>
						}
						break;
    11a0:	37 c0       	rjmp	.+110    	; 0x1210 <__vector_15+0x6bc>

						default:
						{
							FSM_ParameterA=0; //Parameter A not used for this State
    11a2:	10 92 ea 01 	sts	0x01EA, r1	; 0x8001ea <FSM_ParameterA+0x1>
    11a6:	10 92 e9 01 	sts	0x01E9, r1	; 0x8001e9 <FSM_ParameterA>
							FSM_ParameterB=0; //Parameter B not used for this State
    11aa:	10 92 e8 01 	sts	0x01E8, r1	; 0x8001e8 <FSM_ParameterB+0x1>
    11ae:	10 92 e7 01 	sts	0x01E7, r1	; 0x8001e7 <FSM_ParameterB>
    11b2:	28 c0       	rjmp	.+80     	; 0x1204 <__vector_15+0x6b0>
			}
			break;
		
			case DAH_HIGH_MACHINE:
			{
				KEYOUTPUTHIGH;
    11b4:	8b b1       	in	r24, 0x0b	; 11
    11b6:	8f 79       	andi	r24, 0x9F	; 159
    11b8:	8b b9       	out	0x0b, r24	; 11
				//Okay we need to decrese
				if(FSM_ParameterA>0)
    11ba:	80 91 e9 01 	lds	r24, 0x01E9	; 0x8001e9 <FSM_ParameterA>
    11be:	90 91 ea 01 	lds	r25, 0x01EA	; 0x8001ea <FSM_ParameterA+0x1>
    11c2:	89 2b       	or	r24, r25
    11c4:	51 f0       	breq	.+20     	; 0x11da <__vector_15+0x686>
				{
					FSM_ParameterA--;
    11c6:	80 91 e9 01 	lds	r24, 0x01E9	; 0x8001e9 <FSM_ParameterA>
    11ca:	90 91 ea 01 	lds	r25, 0x01EA	; 0x8001ea <FSM_ParameterA+0x1>
    11ce:	01 97       	sbiw	r24, 0x01	; 1
    11d0:	90 93 ea 01 	sts	0x01EA, r25	; 0x8001ea <FSM_ParameterA+0x1>
    11d4:	80 93 e9 01 	sts	0x01E9, r24	; 0x8001e9 <FSM_ParameterA>
    11d8:	1b c0       	rjmp	.+54     	; 0x1210 <__vector_15+0x6bc>
				}			
				else //We are done here
				{
					FSM_State=DAH_LOW_MACHINE;
    11da:	85 e0       	ldi	r24, 0x05	; 5
    11dc:	df cf       	rjmp	.-66     	; 0x119c <__vector_15+0x648>
			}
			break;
		
			case DAH_LOW_MACHINE:
			{
				KEYOUTPUTLOW;
    11de:	8b b1       	in	r24, 0x0b	; 11
    11e0:	80 66       	ori	r24, 0x60	; 96
    11e2:	8b b9       	out	0x0b, r24	; 11
			}
			break;
			
			case DO_SPACE_MACHINE:
			{
				if(FSM_ParameterB>0)
    11e4:	80 91 e7 01 	lds	r24, 0x01E7	; 0x8001e7 <FSM_ParameterB>
    11e8:	90 91 e8 01 	lds	r25, 0x01E8	; 0x8001e8 <FSM_ParameterB+0x1>
    11ec:	89 2b       	or	r24, r25
    11ee:	51 f0       	breq	.+20     	; 0x1204 <__vector_15+0x6b0>
				{
					FSM_ParameterB--;
    11f0:	80 91 e7 01 	lds	r24, 0x01E7	; 0x8001e7 <FSM_ParameterB>
    11f4:	90 91 e8 01 	lds	r25, 0x01E8	; 0x8001e8 <FSM_ParameterB+0x1>
    11f8:	01 97       	sbiw	r24, 0x01	; 1
    11fa:	90 93 e8 01 	sts	0x01E8, r25	; 0x8001e8 <FSM_ParameterB+0x1>
    11fe:	80 93 e7 01 	sts	0x01E7, r24	; 0x8001e7 <FSM_ParameterB>
    1202:	06 c0       	rjmp	.+12     	; 0x1210 <__vector_15+0x6bc>
				}
				else //We are done here
				{
					FSM_State=IDLE;
    1204:	10 92 ec 01 	sts	0x01EC, r1	; 0x8001ec <FSM_State>
    1208:	03 c0       	rjmp	.+6      	; 0x1210 <__vector_15+0x6bc>
			break;	
			
			default:
			{
				//Not used here or not valide
				KEYOUTPUTLOW;
    120a:	8b b1       	in	r24, 0x0b	; 11
    120c:	80 66       	ori	r24, 0x60	; 96
    120e:	8b b9       	out	0x0b, r24	; 11


		}

		}
	TIMECOUNTERPORT |= (TIMECOUNTERPIN1);
    1210:	28 9a       	sbi	0x05, 0	; 5
    1212:	0f 90       	pop	r0
    1214:	0f 90       	pop	r0
    1216:	df 91       	pop	r29
    1218:	cf 91       	pop	r28
    121a:	ff 91       	pop	r31
    121c:	ef 91       	pop	r30
    121e:	bf 91       	pop	r27
    1220:	af 91       	pop	r26
    1222:	9f 91       	pop	r25
    1224:	8f 91       	pop	r24
    1226:	7f 91       	pop	r23
    1228:	6f 91       	pop	r22
    122a:	5f 91       	pop	r21
    122c:	4f 91       	pop	r20
    122e:	3f 91       	pop	r19
    1230:	2f 91       	pop	r18
    1232:	1f 91       	pop	r17
    1234:	0f 91       	pop	r16
    1236:	ff 90       	pop	r15
    1238:	ef 90       	pop	r14
    123a:	df 90       	pop	r13
    123c:	cf 90       	pop	r12
    123e:	0f 90       	pop	r0
    1240:	0f be       	out	0x3f, r0	; 63
    1242:	0f 90       	pop	r0
    1244:	1f 90       	pop	r1
    1246:	18 95       	reti

00001248 <CDC_Device_ConfigureEndpoints>:

void CDC_Device_CreateBlockingStream(USB_ClassInfo_CDC_Device_t* const CDCInterfaceInfo,
                                     FILE* const Stream)
{
	*Stream = (FILE)FDEV_SETUP_STREAM(CDC_Device_putchar, CDC_Device_getchar_Blocking, _FDEV_SETUP_RW);
	fdev_set_udata(Stream, CDCInterfaceInfo);
    1248:	cf 93       	push	r28
    124a:	df 93       	push	r29
    124c:	ec 01       	movw	r28, r24
    124e:	fc 01       	movw	r30, r24
    1250:	70 96       	adiw	r30, 0x10	; 16
    1252:	8b e0       	ldi	r24, 0x0B	; 11
    1254:	df 01       	movw	r26, r30
    1256:	1d 92       	st	X+, r1
    1258:	8a 95       	dec	r24
    125a:	e9 f7       	brne	.-6      	; 0x1256 <CDC_Device_ConfigureEndpoints+0xe>
    125c:	82 e0       	ldi	r24, 0x02	; 2
    125e:	8c 83       	std	Y+4, r24	; 0x04
    1260:	89 87       	std	Y+9, r24	; 0x09
    1262:	83 e0       	ldi	r24, 0x03	; 3
    1264:	8e 87       	std	Y+14, r24	; 0x0e
    1266:	61 e0       	ldi	r22, 0x01	; 1
    1268:	ce 01       	movw	r24, r28
    126a:	01 96       	adiw	r24, 0x01	; 1
    126c:	3a d2       	rcall	.+1140   	; 0x16e2 <Endpoint_ConfigureEndpointTable>
    126e:	88 23       	and	r24, r24
    1270:	61 f0       	breq	.+24     	; 0x128a <CDC_Device_ConfigureEndpoints+0x42>
    1272:	61 e0       	ldi	r22, 0x01	; 1
    1274:	ce 01       	movw	r24, r28
    1276:	06 96       	adiw	r24, 0x06	; 6
    1278:	34 d2       	rcall	.+1128   	; 0x16e2 <Endpoint_ConfigureEndpointTable>
    127a:	88 23       	and	r24, r24
    127c:	31 f0       	breq	.+12     	; 0x128a <CDC_Device_ConfigureEndpoints+0x42>
    127e:	61 e0       	ldi	r22, 0x01	; 1
    1280:	ce 01       	movw	r24, r28
    1282:	0b 96       	adiw	r24, 0x0b	; 11
    1284:	df 91       	pop	r29
    1286:	cf 91       	pop	r28
    1288:	2c c2       	rjmp	.+1112   	; 0x16e2 <Endpoint_ConfigureEndpointTable>
    128a:	80 e0       	ldi	r24, 0x00	; 0
    128c:	df 91       	pop	r29
    128e:	cf 91       	pop	r28
    1290:	08 95       	ret

00001292 <CDC_Device_SendByte>:
    1292:	0f 93       	push	r16
    1294:	1f 93       	push	r17
    1296:	cf 93       	push	r28
    1298:	2e b3       	in	r18, 0x1e	; 30
    129a:	24 30       	cpi	r18, 0x04	; 4
    129c:	f9 f4       	brne	.+62     	; 0x12dc <CDC_Device_SendByte+0x4a>
    129e:	fc 01       	movw	r30, r24
    12a0:	04 89       	ldd	r16, Z+20	; 0x14
    12a2:	15 89       	ldd	r17, Z+21	; 0x15
    12a4:	26 89       	ldd	r18, Z+22	; 0x16
    12a6:	37 89       	ldd	r19, Z+23	; 0x17
    12a8:	01 2b       	or	r16, r17
    12aa:	02 2b       	or	r16, r18
    12ac:	03 2b       	or	r16, r19
    12ae:	b1 f0       	breq	.+44     	; 0x12dc <CDC_Device_SendByte+0x4a>
    12b0:	c6 2f       	mov	r28, r22
    12b2:	81 81       	ldd	r24, Z+1	; 0x01
    12b4:	8f 70       	andi	r24, 0x0F	; 15
    12b6:	80 93 e9 00 	sts	0x00E9, r24	; 0x8000e9 <__EEPROM_REGION_LENGTH__+0x7f00e9>
    12ba:	80 91 e8 00 	lds	r24, 0x00E8	; 0x8000e8 <__EEPROM_REGION_LENGTH__+0x7f00e8>
    12be:	85 ff       	sbrs	r24, 5
    12c0:	04 c0       	rjmp	.+8      	; 0x12ca <CDC_Device_SendByte+0x38>
    12c2:	c0 93 f1 00 	sts	0x00F1, r28	; 0x8000f1 <__EEPROM_REGION_LENGTH__+0x7f00f1>
    12c6:	80 e0       	ldi	r24, 0x00	; 0
    12c8:	0a c0       	rjmp	.+20     	; 0x12de <CDC_Device_SendByte+0x4c>
    12ca:	80 91 e8 00 	lds	r24, 0x00E8	; 0x8000e8 <__EEPROM_REGION_LENGTH__+0x7f00e8>
    12ce:	8e 77       	andi	r24, 0x7E	; 126
    12d0:	80 93 e8 00 	sts	0x00E8, r24	; 0x8000e8 <__EEPROM_REGION_LENGTH__+0x7f00e8>
    12d4:	6c d2       	rcall	.+1240   	; 0x17ae <Endpoint_WaitUntilReady>
    12d6:	88 23       	and	r24, r24
    12d8:	a1 f3       	breq	.-24     	; 0x12c2 <CDC_Device_SendByte+0x30>
    12da:	01 c0       	rjmp	.+2      	; 0x12de <CDC_Device_SendByte+0x4c>
    12dc:	82 e0       	ldi	r24, 0x02	; 2
    12de:	cf 91       	pop	r28
    12e0:	1f 91       	pop	r17
    12e2:	0f 91       	pop	r16
    12e4:	08 95       	ret

000012e6 <CDC_Device_Flush>:
    12e6:	2e b3       	in	r18, 0x1e	; 30
    12e8:	24 30       	cpi	r18, 0x04	; 4
    12ea:	21 f5       	brne	.+72     	; 0x1334 <CDC_Device_Flush+0x4e>
    12ec:	fc 01       	movw	r30, r24
    12ee:	44 89       	ldd	r20, Z+20	; 0x14
    12f0:	55 89       	ldd	r21, Z+21	; 0x15
    12f2:	66 89       	ldd	r22, Z+22	; 0x16
    12f4:	77 89       	ldd	r23, Z+23	; 0x17
    12f6:	45 2b       	or	r20, r21
    12f8:	46 2b       	or	r20, r22
    12fa:	47 2b       	or	r20, r23
    12fc:	d9 f0       	breq	.+54     	; 0x1334 <CDC_Device_Flush+0x4e>
    12fe:	81 81       	ldd	r24, Z+1	; 0x01
    1300:	8f 70       	andi	r24, 0x0F	; 15
    1302:	80 93 e9 00 	sts	0x00E9, r24	; 0x8000e9 <__EEPROM_REGION_LENGTH__+0x7f00e9>
    1306:	80 91 f2 00 	lds	r24, 0x00F2	; 0x8000f2 <__EEPROM_REGION_LENGTH__+0x7f00f2>
    130a:	88 23       	and	r24, r24
    130c:	89 f0       	breq	.+34     	; 0x1330 <CDC_Device_Flush+0x4a>
    130e:	90 91 e8 00 	lds	r25, 0x00E8	; 0x8000e8 <__EEPROM_REGION_LENGTH__+0x7f00e8>
    1312:	80 91 e8 00 	lds	r24, 0x00E8	; 0x8000e8 <__EEPROM_REGION_LENGTH__+0x7f00e8>
    1316:	8e 77       	andi	r24, 0x7E	; 126
    1318:	80 93 e8 00 	sts	0x00E8, r24	; 0x8000e8 <__EEPROM_REGION_LENGTH__+0x7f00e8>
    131c:	95 fd       	sbrc	r25, 5
    131e:	08 c0       	rjmp	.+16     	; 0x1330 <CDC_Device_Flush+0x4a>
    1320:	46 d2       	rcall	.+1164   	; 0x17ae <Endpoint_WaitUntilReady>
    1322:	81 11       	cpse	r24, r1
    1324:	08 c0       	rjmp	.+16     	; 0x1336 <CDC_Device_Flush+0x50>
    1326:	80 91 e8 00 	lds	r24, 0x00E8	; 0x8000e8 <__EEPROM_REGION_LENGTH__+0x7f00e8>
    132a:	8e 77       	andi	r24, 0x7E	; 126
    132c:	80 93 e8 00 	sts	0x00E8, r24	; 0x8000e8 <__EEPROM_REGION_LENGTH__+0x7f00e8>
    1330:	80 e0       	ldi	r24, 0x00	; 0
    1332:	08 95       	ret
    1334:	82 e0       	ldi	r24, 0x02	; 2
    1336:	08 95       	ret

00001338 <CDC_Device_USBTask>:
    1338:	2e b3       	in	r18, 0x1e	; 30
    133a:	24 30       	cpi	r18, 0x04	; 4
    133c:	89 f4       	brne	.+34     	; 0x1360 <CDC_Device_USBTask+0x28>
    133e:	fc 01       	movw	r30, r24
    1340:	44 89       	ldd	r20, Z+20	; 0x14
    1342:	55 89       	ldd	r21, Z+21	; 0x15
    1344:	66 89       	ldd	r22, Z+22	; 0x16
    1346:	77 89       	ldd	r23, Z+23	; 0x17
    1348:	45 2b       	or	r20, r21
    134a:	46 2b       	or	r20, r22
    134c:	47 2b       	or	r20, r23
    134e:	41 f0       	breq	.+16     	; 0x1360 <CDC_Device_USBTask+0x28>
    1350:	21 81       	ldd	r18, Z+1	; 0x01
    1352:	2f 70       	andi	r18, 0x0F	; 15
    1354:	20 93 e9 00 	sts	0x00E9, r18	; 0x8000e9 <__EEPROM_REGION_LENGTH__+0x7f00e9>
    1358:	20 91 e8 00 	lds	r18, 0x00E8	; 0x8000e8 <__EEPROM_REGION_LENGTH__+0x7f00e8>
    135c:	20 fd       	sbrc	r18, 0
    135e:	c3 cf       	rjmp	.-122    	; 0x12e6 <CDC_Device_Flush>
    1360:	08 95       	ret

00001362 <CDC_Device_ReceiveByte>:
    1362:	2e b3       	in	r18, 0x1e	; 30
    1364:	24 30       	cpi	r18, 0x04	; 4
    1366:	19 f0       	breq	.+6      	; 0x136e <CDC_Device_ReceiveByte+0xc>
    1368:	8f ef       	ldi	r24, 0xFF	; 255
    136a:	9f ef       	ldi	r25, 0xFF	; 255
    136c:	08 95       	ret
    136e:	fc 01       	movw	r30, r24
    1370:	44 89       	ldd	r20, Z+20	; 0x14
    1372:	55 89       	ldd	r21, Z+21	; 0x15
    1374:	66 89       	ldd	r22, Z+22	; 0x16
    1376:	77 89       	ldd	r23, Z+23	; 0x17
    1378:	45 2b       	or	r20, r21
    137a:	46 2b       	or	r20, r22
    137c:	47 2b       	or	r20, r23
    137e:	a1 f3       	breq	.-24     	; 0x1368 <CDC_Device_ReceiveByte+0x6>
    1380:	86 81       	ldd	r24, Z+6	; 0x06
    1382:	8f 70       	andi	r24, 0x0F	; 15
    1384:	80 93 e9 00 	sts	0x00E9, r24	; 0x8000e9 <__EEPROM_REGION_LENGTH__+0x7f00e9>
    1388:	80 91 e8 00 	lds	r24, 0x00E8	; 0x8000e8 <__EEPROM_REGION_LENGTH__+0x7f00e8>
    138c:	82 ff       	sbrs	r24, 2
    138e:	ec cf       	rjmp	.-40     	; 0x1368 <CDC_Device_ReceiveByte+0x6>
    1390:	80 91 f2 00 	lds	r24, 0x00F2	; 0x8000f2 <__EEPROM_REGION_LENGTH__+0x7f00f2>
    1394:	88 23       	and	r24, r24
    1396:	21 f0       	breq	.+8      	; 0x13a0 <CDC_Device_ReceiveByte+0x3e>
    1398:	20 91 f1 00 	lds	r18, 0x00F1	; 0x8000f1 <__EEPROM_REGION_LENGTH__+0x7f00f1>
    139c:	30 e0       	ldi	r19, 0x00	; 0
    139e:	02 c0       	rjmp	.+4      	; 0x13a4 <CDC_Device_ReceiveByte+0x42>
    13a0:	2f ef       	ldi	r18, 0xFF	; 255
    13a2:	3f ef       	ldi	r19, 0xFF	; 255
    13a4:	80 91 f2 00 	lds	r24, 0x00F2	; 0x8000f2 <__EEPROM_REGION_LENGTH__+0x7f00f2>
    13a8:	81 11       	cpse	r24, r1
    13aa:	05 c0       	rjmp	.+10     	; 0x13b6 <CDC_Device_ReceiveByte+0x54>
    13ac:	80 91 e8 00 	lds	r24, 0x00E8	; 0x8000e8 <__EEPROM_REGION_LENGTH__+0x7f00e8>
    13b0:	8b 77       	andi	r24, 0x7B	; 123
    13b2:	80 93 e8 00 	sts	0x00E8, r24	; 0x8000e8 <__EEPROM_REGION_LENGTH__+0x7f00e8>
    13b6:	c9 01       	movw	r24, r18
    13b8:	08 95       	ret

000013ba <CDC_Device_Event_Stub>:
	return ReceivedByte;
}
#endif

void CDC_Device_Event_Stub(void)
{
    13ba:	08 95       	ret

000013bc <CDC_Device_ProcessControlRequest>:
#define  __INCLUDE_FROM_CDC_DRIVER
#define  __INCLUDE_FROM_CDC_DEVICE_C
#include "CDCClassDevice.h"

void CDC_Device_ProcessControlRequest(USB_ClassInfo_CDC_Device_t* const CDCInterfaceInfo)
{
    13bc:	cf 93       	push	r28
    13be:	df 93       	push	r29
    13c0:	ec 01       	movw	r28, r24
			 *  \return Boolean \c true if the selected endpoint has received a SETUP packet, \c false otherwise.
			 */
			static inline bool Endpoint_IsSETUPReceived(void) ATTR_WARN_UNUSED_RESULT ATTR_ALWAYS_INLINE;
			static inline bool Endpoint_IsSETUPReceived(void)
			{
				return ((UEINTX & (1 << RXSTPI)) ? true : false);
    13c2:	80 91 e8 00 	lds	r24, 0x00E8	; 0x8000e8 <__EEPROM_REGION_LENGTH__+0x7f00e8>
	if (!(Endpoint_IsSETUPReceived()))
    13c6:	83 ff       	sbrs	r24, 3
    13c8:	a6 c0       	rjmp	.+332    	; 0x1516 <CDC_Device_ProcessControlRequest+0x15a>
	  return;

	if (USB_ControlRequest.wIndex != CDCInterfaceInfo->Config.ControlInterfaceNumber)
    13ca:	88 81       	ld	r24, Y
    13cc:	90 e0       	ldi	r25, 0x00	; 0
    13ce:	20 91 fa 02 	lds	r18, 0x02FA	; 0x8002fa <USB_ControlRequest+0x4>
    13d2:	30 91 fb 02 	lds	r19, 0x02FB	; 0x8002fb <USB_ControlRequest+0x5>
    13d6:	28 17       	cp	r18, r24
    13d8:	39 07       	cpc	r19, r25
    13da:	09 f0       	breq	.+2      	; 0x13de <CDC_Device_ProcessControlRequest+0x22>
    13dc:	9c c0       	rjmp	.+312    	; 0x1516 <CDC_Device_ProcessControlRequest+0x15a>
	  return;

	switch (USB_ControlRequest.bRequest)
    13de:	80 91 f7 02 	lds	r24, 0x02F7	; 0x8002f7 <USB_ControlRequest+0x1>
    13e2:	81 32       	cpi	r24, 0x21	; 33
    13e4:	61 f0       	breq	.+24     	; 0x13fe <CDC_Device_ProcessControlRequest+0x42>
    13e6:	20 f4       	brcc	.+8      	; 0x13f0 <CDC_Device_ProcessControlRequest+0x34>
    13e8:	80 32       	cpi	r24, 0x20	; 32
    13ea:	09 f4       	brne	.+2      	; 0x13ee <CDC_Device_ProcessControlRequest+0x32>
    13ec:	3e c0       	rjmp	.+124    	; 0x146a <CDC_Device_ProcessControlRequest+0xae>
    13ee:	93 c0       	rjmp	.+294    	; 0x1516 <CDC_Device_ProcessControlRequest+0x15a>
    13f0:	82 32       	cpi	r24, 0x22	; 34
    13f2:	09 f4       	brne	.+2      	; 0x13f6 <CDC_Device_ProcessControlRequest+0x3a>
    13f4:	6c c0       	rjmp	.+216    	; 0x14ce <CDC_Device_ProcessControlRequest+0x112>
    13f6:	83 32       	cpi	r24, 0x23	; 35
    13f8:	09 f4       	brne	.+2      	; 0x13fc <CDC_Device_ProcessControlRequest+0x40>
    13fa:	7d c0       	rjmp	.+250    	; 0x14f6 <CDC_Device_ProcessControlRequest+0x13a>
    13fc:	8c c0       	rjmp	.+280    	; 0x1516 <CDC_Device_ProcessControlRequest+0x15a>
	{
		case CDC_REQ_GetLineEncoding:
			if (USB_ControlRequest.bmRequestType == (REQDIR_DEVICETOHOST | REQTYPE_CLASS | REQREC_INTERFACE))
    13fe:	80 91 f6 02 	lds	r24, 0x02F6	; 0x8002f6 <USB_ControlRequest>
    1402:	81 3a       	cpi	r24, 0xA1	; 161
    1404:	09 f0       	breq	.+2      	; 0x1408 <CDC_Device_ProcessControlRequest+0x4c>
    1406:	87 c0       	rjmp	.+270    	; 0x1516 <CDC_Device_ProcessControlRequest+0x15a>
			 *  \note This is not applicable for non CONTROL type endpoints.
			 */
			static inline void Endpoint_ClearSETUP(void) ATTR_ALWAYS_INLINE;
			static inline void Endpoint_ClearSETUP(void)
			{
				UEINTX &= ~(1 << RXSTPI);
    1408:	80 91 e8 00 	lds	r24, 0x00E8	; 0x8000e8 <__EEPROM_REGION_LENGTH__+0x7f00e8>
    140c:	87 7f       	andi	r24, 0xF7	; 247
    140e:	80 93 e8 00 	sts	0x00E8, r24	; 0x8000e8 <__EEPROM_REGION_LENGTH__+0x7f00e8>
			 *  \return Boolean \c true if the current endpoint is ready for an IN packet, \c false otherwise.
			 */
			static inline bool Endpoint_IsINReady(void) ATTR_WARN_UNUSED_RESULT ATTR_ALWAYS_INLINE;
			static inline bool Endpoint_IsINReady(void)
			{
				return ((UEINTX & (1 << TXINI)) ? true : false);
    1412:	80 91 e8 00 	lds	r24, 0x00E8	; 0x8000e8 <__EEPROM_REGION_LENGTH__+0x7f00e8>
			{
				Endpoint_ClearSETUP();

				while (!(Endpoint_IsINReady()));
    1416:	80 ff       	sbrs	r24, 0
    1418:	fc cf       	rjmp	.-8      	; 0x1412 <CDC_Device_ProcessControlRequest+0x56>

				Endpoint_Write_32_LE(CDCInterfaceInfo->State.LineEncoding.BaudRateBPS);
    141a:	8c 89       	ldd	r24, Y+20	; 0x14
    141c:	9d 89       	ldd	r25, Y+21	; 0x15
    141e:	ae 89       	ldd	r26, Y+22	; 0x16
    1420:	bf 89       	ldd	r27, Y+23	; 0x17
			 *  \param[in] Data  Data to write to the currently selected endpoint's FIFO buffer.
			 */
			static inline void Endpoint_Write_32_LE(const uint32_t Data) ATTR_ALWAYS_INLINE;
			static inline void Endpoint_Write_32_LE(const uint32_t Data)
			{
				UEDATX = (Data &  0xFF);
    1422:	80 93 f1 00 	sts	0x00F1, r24	; 0x8000f1 <__EEPROM_REGION_LENGTH__+0x7f00f1>
				UEDATX = (Data >> 8);
    1426:	49 2f       	mov	r20, r25
    1428:	5a 2f       	mov	r21, r26
    142a:	6b 2f       	mov	r22, r27
    142c:	77 27       	eor	r23, r23
    142e:	40 93 f1 00 	sts	0x00F1, r20	; 0x8000f1 <__EEPROM_REGION_LENGTH__+0x7f00f1>
				UEDATX = (Data >> 16);
    1432:	ad 01       	movw	r20, r26
    1434:	66 27       	eor	r22, r22
    1436:	77 27       	eor	r23, r23
    1438:	40 93 f1 00 	sts	0x00F1, r20	; 0x8000f1 <__EEPROM_REGION_LENGTH__+0x7f00f1>
				UEDATX = (Data >> 24);
    143c:	8b 2f       	mov	r24, r27
    143e:	99 27       	eor	r25, r25
    1440:	aa 27       	eor	r26, r26
    1442:	bb 27       	eor	r27, r27
    1444:	80 93 f1 00 	sts	0x00F1, r24	; 0x8000f1 <__EEPROM_REGION_LENGTH__+0x7f00f1>
				Endpoint_Write_8(CDCInterfaceInfo->State.LineEncoding.CharFormat);
    1448:	88 8d       	ldd	r24, Y+24	; 0x18
			 *  \param[in] Data  Data to write into the the currently selected endpoint's FIFO buffer.
			 */
			static inline void Endpoint_Write_8(const uint8_t Data) ATTR_ALWAYS_INLINE;
			static inline void Endpoint_Write_8(const uint8_t Data)
			{
				UEDATX = Data;
    144a:	80 93 f1 00 	sts	0x00F1, r24	; 0x8000f1 <__EEPROM_REGION_LENGTH__+0x7f00f1>
				Endpoint_Write_8(CDCInterfaceInfo->State.LineEncoding.ParityType);
    144e:	89 8d       	ldd	r24, Y+25	; 0x19
    1450:	80 93 f1 00 	sts	0x00F1, r24	; 0x8000f1 <__EEPROM_REGION_LENGTH__+0x7f00f1>
				Endpoint_Write_8(CDCInterfaceInfo->State.LineEncoding.DataBits);
    1454:	8a 8d       	ldd	r24, Y+26	; 0x1a
    1456:	80 93 f1 00 	sts	0x00F1, r24	; 0x8000f1 <__EEPROM_REGION_LENGTH__+0x7f00f1>
			 */
			static inline void Endpoint_ClearIN(void) ATTR_ALWAYS_INLINE;
			static inline void Endpoint_ClearIN(void)
			{
				#if !defined(CONTROL_ONLY_DEVICE)
					UEINTX &= ~((1 << TXINI) | (1 << FIFOCON));
    145a:	80 91 e8 00 	lds	r24, 0x00E8	; 0x8000e8 <__EEPROM_REGION_LENGTH__+0x7f00e8>
    145e:	8e 77       	andi	r24, 0x7E	; 126
    1460:	80 93 e8 00 	sts	0x00E8, r24	; 0x8000e8 <__EEPROM_REGION_LENGTH__+0x7f00e8>
				EVENT_CDC_Device_BreakSent(CDCInterfaceInfo, (uint8_t)USB_ControlRequest.wValue);
			}

			break;
	}
}
    1464:	df 91       	pop	r29
    1466:	cf 91       	pop	r28
				Endpoint_Write_8(CDCInterfaceInfo->State.LineEncoding.CharFormat);
				Endpoint_Write_8(CDCInterfaceInfo->State.LineEncoding.ParityType);
				Endpoint_Write_8(CDCInterfaceInfo->State.LineEncoding.DataBits);

				Endpoint_ClearIN();
				Endpoint_ClearStatusStage();
    1468:	85 c1       	rjmp	.+778    	; 0x1774 <Endpoint_ClearStatusStage>
			}

			break;
		case CDC_REQ_SetLineEncoding:
			if (USB_ControlRequest.bmRequestType == (REQDIR_HOSTTODEVICE | REQTYPE_CLASS | REQREC_INTERFACE))
    146a:	80 91 f6 02 	lds	r24, 0x02F6	; 0x8002f6 <USB_ControlRequest>
    146e:	81 32       	cpi	r24, 0x21	; 33
    1470:	09 f0       	breq	.+2      	; 0x1474 <CDC_Device_ProcessControlRequest+0xb8>
    1472:	51 c0       	rjmp	.+162    	; 0x1516 <CDC_Device_ProcessControlRequest+0x15a>
			 *  \note This is not applicable for non CONTROL type endpoints.
			 */
			static inline void Endpoint_ClearSETUP(void) ATTR_ALWAYS_INLINE;
			static inline void Endpoint_ClearSETUP(void)
			{
				UEINTX &= ~(1 << RXSTPI);
    1474:	80 91 e8 00 	lds	r24, 0x00E8	; 0x8000e8 <__EEPROM_REGION_LENGTH__+0x7f00e8>
    1478:	87 7f       	andi	r24, 0xF7	; 247
    147a:	80 93 e8 00 	sts	0x00E8, r24	; 0x8000e8 <__EEPROM_REGION_LENGTH__+0x7f00e8>
			 *  \return Boolean \c true if current endpoint is has received an OUT packet, \c false otherwise.
			 */
			static inline bool Endpoint_IsOUTReceived(void) ATTR_WARN_UNUSED_RESULT ATTR_ALWAYS_INLINE;
			static inline bool Endpoint_IsOUTReceived(void)
			{
				return ((UEINTX & (1 << RXOUTI)) ? true : false);
    147e:	80 91 e8 00 	lds	r24, 0x00E8	; 0x8000e8 <__EEPROM_REGION_LENGTH__+0x7f00e8>
			{
				Endpoint_ClearSETUP();

				while (!(Endpoint_IsOUTReceived()))
    1482:	82 fd       	sbrc	r24, 2
    1484:	04 c0       	rjmp	.+8      	; 0x148e <CDC_Device_ProcessControlRequest+0xd2>
				{
					if (USB_DeviceState == DEVICE_STATE_Unattached)
    1486:	8e b3       	in	r24, 0x1e	; 30
    1488:	81 11       	cpse	r24, r1
    148a:	f9 cf       	rjmp	.-14     	; 0x147e <CDC_Device_ProcessControlRequest+0xc2>
    148c:	44 c0       	rjmp	.+136    	; 0x1516 <CDC_Device_ProcessControlRequest+0x15a>
				{
					uint32_t Value;
					uint8_t  Bytes[4];
				} Data;

				Data.Bytes[0] = UEDATX;
    148e:	30 91 f1 00 	lds	r19, 0x00F1	; 0x8000f1 <__EEPROM_REGION_LENGTH__+0x7f00f1>
				Data.Bytes[1] = UEDATX;
    1492:	20 91 f1 00 	lds	r18, 0x00F1	; 0x8000f1 <__EEPROM_REGION_LENGTH__+0x7f00f1>
				Data.Bytes[2] = UEDATX;
    1496:	90 91 f1 00 	lds	r25, 0x00F1	; 0x8000f1 <__EEPROM_REGION_LENGTH__+0x7f00f1>
				Data.Bytes[3] = UEDATX;
    149a:	80 91 f1 00 	lds	r24, 0x00F1	; 0x8000f1 <__EEPROM_REGION_LENGTH__+0x7f00f1>
					  return;
				}

				CDCInterfaceInfo->State.LineEncoding.BaudRateBPS = Endpoint_Read_32_LE();
    149e:	3c 8b       	std	Y+20, r19	; 0x14
    14a0:	2d 8b       	std	Y+21, r18	; 0x15
    14a2:	9e 8b       	std	Y+22, r25	; 0x16
    14a4:	8f 8b       	std	Y+23, r24	; 0x17
			 *  \return Next byte in the currently selected endpoint's FIFO buffer.
			 */
			static inline uint8_t Endpoint_Read_8(void) ATTR_WARN_UNUSED_RESULT ATTR_ALWAYS_INLINE;
			static inline uint8_t Endpoint_Read_8(void)
			{
				return UEDATX;
    14a6:	80 91 f1 00 	lds	r24, 0x00F1	; 0x8000f1 <__EEPROM_REGION_LENGTH__+0x7f00f1>
				CDCInterfaceInfo->State.LineEncoding.CharFormat  = Endpoint_Read_8();
    14aa:	88 8f       	std	Y+24, r24	; 0x18
    14ac:	80 91 f1 00 	lds	r24, 0x00F1	; 0x8000f1 <__EEPROM_REGION_LENGTH__+0x7f00f1>
				CDCInterfaceInfo->State.LineEncoding.ParityType  = Endpoint_Read_8();
    14b0:	89 8f       	std	Y+25, r24	; 0x19
    14b2:	80 91 f1 00 	lds	r24, 0x00F1	; 0x8000f1 <__EEPROM_REGION_LENGTH__+0x7f00f1>
				CDCInterfaceInfo->State.LineEncoding.DataBits    = Endpoint_Read_8();
    14b6:	8a 8f       	std	Y+26, r24	; 0x1a
			 */
			static inline void Endpoint_ClearOUT(void) ATTR_ALWAYS_INLINE;
			static inline void Endpoint_ClearOUT(void)
			{
				#if !defined(CONTROL_ONLY_DEVICE)
					UEINTX &= ~((1 << RXOUTI) | (1 << FIFOCON));
    14b8:	80 91 e8 00 	lds	r24, 0x00E8	; 0x8000e8 <__EEPROM_REGION_LENGTH__+0x7f00e8>
    14bc:	8b 77       	andi	r24, 0x7B	; 123
    14be:	80 93 e8 00 	sts	0x00E8, r24	; 0x8000e8 <__EEPROM_REGION_LENGTH__+0x7f00e8>

				Endpoint_ClearOUT();
				Endpoint_ClearStatusStage();
    14c2:	58 d1       	rcall	.+688    	; 0x1774 <Endpoint_ClearStatusStage>

				EVENT_CDC_Device_LineEncodingChanged(CDCInterfaceInfo);
    14c4:	ce 01       	movw	r24, r28
				EVENT_CDC_Device_BreakSent(CDCInterfaceInfo, (uint8_t)USB_ControlRequest.wValue);
			}

			break;
	}
}
    14c6:	df 91       	pop	r29
    14c8:	cf 91       	pop	r28
				CDCInterfaceInfo->State.LineEncoding.DataBits    = Endpoint_Read_8();

				Endpoint_ClearOUT();
				Endpoint_ClearStatusStage();

				EVENT_CDC_Device_LineEncodingChanged(CDCInterfaceInfo);
    14ca:	0c 94 55 02 	jmp	0x4aa	; 0x4aa <EVENT_CDC_Device_LineEncodingChanged>
			}

			break;
		case CDC_REQ_SetControlLineState:
			if (USB_ControlRequest.bmRequestType == (REQDIR_HOSTTODEVICE | REQTYPE_CLASS | REQREC_INTERFACE))
    14ce:	80 91 f6 02 	lds	r24, 0x02F6	; 0x8002f6 <USB_ControlRequest>
    14d2:	81 32       	cpi	r24, 0x21	; 33
    14d4:	01 f5       	brne	.+64     	; 0x1516 <CDC_Device_ProcessControlRequest+0x15a>
			 *  \note This is not applicable for non CONTROL type endpoints.
			 */
			static inline void Endpoint_ClearSETUP(void) ATTR_ALWAYS_INLINE;
			static inline void Endpoint_ClearSETUP(void)
			{
				UEINTX &= ~(1 << RXSTPI);
    14d6:	80 91 e8 00 	lds	r24, 0x00E8	; 0x8000e8 <__EEPROM_REGION_LENGTH__+0x7f00e8>
    14da:	87 7f       	andi	r24, 0xF7	; 247
    14dc:	80 93 e8 00 	sts	0x00E8, r24	; 0x8000e8 <__EEPROM_REGION_LENGTH__+0x7f00e8>
			{
				Endpoint_ClearSETUP();
				Endpoint_ClearStatusStage();
    14e0:	49 d1       	rcall	.+658    	; 0x1774 <Endpoint_ClearStatusStage>

				CDCInterfaceInfo->State.ControlLineStates.HostToDevice = USB_ControlRequest.wValue;
    14e2:	80 91 f8 02 	lds	r24, 0x02F8	; 0x8002f8 <USB_ControlRequest+0x2>
    14e6:	90 91 f9 02 	lds	r25, 0x02F9	; 0x8002f9 <USB_ControlRequest+0x3>
    14ea:	99 8b       	std	Y+17, r25	; 0x11
    14ec:	88 8b       	std	Y+16, r24	; 0x10

				EVENT_CDC_Device_ControLineStateChanged(CDCInterfaceInfo);
    14ee:	ce 01       	movw	r24, r28
				EVENT_CDC_Device_BreakSent(CDCInterfaceInfo, (uint8_t)USB_ControlRequest.wValue);
			}

			break;
	}
}
    14f0:	df 91       	pop	r29
    14f2:	cf 91       	pop	r28
				Endpoint_ClearSETUP();
				Endpoint_ClearStatusStage();

				CDCInterfaceInfo->State.ControlLineStates.HostToDevice = USB_ControlRequest.wValue;

				EVENT_CDC_Device_ControLineStateChanged(CDCInterfaceInfo);
    14f4:	62 cf       	rjmp	.-316    	; 0x13ba <CDC_Device_Event_Stub>
			}

			break;
		case CDC_REQ_SendBreak:
			if (USB_ControlRequest.bmRequestType == (REQDIR_HOSTTODEVICE | REQTYPE_CLASS | REQREC_INTERFACE))
    14f6:	80 91 f6 02 	lds	r24, 0x02F6	; 0x8002f6 <USB_ControlRequest>
    14fa:	81 32       	cpi	r24, 0x21	; 33
    14fc:	61 f4       	brne	.+24     	; 0x1516 <CDC_Device_ProcessControlRequest+0x15a>
    14fe:	80 91 e8 00 	lds	r24, 0x00E8	; 0x8000e8 <__EEPROM_REGION_LENGTH__+0x7f00e8>
    1502:	87 7f       	andi	r24, 0xF7	; 247
    1504:	80 93 e8 00 	sts	0x00E8, r24	; 0x8000e8 <__EEPROM_REGION_LENGTH__+0x7f00e8>
			{
				Endpoint_ClearSETUP();
				Endpoint_ClearStatusStage();
    1508:	35 d1       	rcall	.+618    	; 0x1774 <Endpoint_ClearStatusStage>

				EVENT_CDC_Device_BreakSent(CDCInterfaceInfo, (uint8_t)USB_ControlRequest.wValue);
    150a:	60 91 f8 02 	lds	r22, 0x02F8	; 0x8002f8 <USB_ControlRequest+0x2>
    150e:	ce 01       	movw	r24, r28
			}

			break;
	}
}
    1510:	df 91       	pop	r29
    1512:	cf 91       	pop	r28
			if (USB_ControlRequest.bmRequestType == (REQDIR_HOSTTODEVICE | REQTYPE_CLASS | REQREC_INTERFACE))
			{
				Endpoint_ClearSETUP();
				Endpoint_ClearStatusStage();

				EVENT_CDC_Device_BreakSent(CDCInterfaceInfo, (uint8_t)USB_ControlRequest.wValue);
    1514:	52 cf       	rjmp	.-348    	; 0x13ba <CDC_Device_Event_Stub>
			}

			break;
	}
}
    1516:	df 91       	pop	r29
    1518:	cf 91       	pop	r28
    151a:	08 95       	ret

0000151c <Endpoint_Write_Control_Stream_LE>:
		else if (USB_DeviceState_LCL == DEVICE_STATE_Suspended)
		  return ENDPOINT_RWCSTREAM_BusSuspended;
	}

	return ENDPOINT_RWCSTREAM_NoError;
}
    151c:	20 91 fc 02 	lds	r18, 0x02FC	; 0x8002fc <USB_ControlRequest+0x6>
    1520:	30 91 fd 02 	lds	r19, 0x02FD	; 0x8002fd <USB_ControlRequest+0x7>
    1524:	26 17       	cp	r18, r22
    1526:	37 07       	cpc	r19, r23
    1528:	48 f0       	brcs	.+18     	; 0x153c <Endpoint_Write_Control_Stream_LE+0x20>
    152a:	61 15       	cp	r22, r1
    152c:	71 05       	cpc	r23, r1
    152e:	39 f4       	brne	.+14     	; 0x153e <Endpoint_Write_Control_Stream_LE+0x22>
    1530:	20 91 e8 00 	lds	r18, 0x00E8	; 0x8000e8 <__EEPROM_REGION_LENGTH__+0x7f00e8>
    1534:	2e 77       	andi	r18, 0x7E	; 126
    1536:	20 93 e8 00 	sts	0x00E8, r18	; 0x8000e8 <__EEPROM_REGION_LENGTH__+0x7f00e8>
    153a:	01 c0       	rjmp	.+2      	; 0x153e <Endpoint_Write_Control_Stream_LE+0x22>
    153c:	b9 01       	movw	r22, r18
    153e:	40 e0       	ldi	r20, 0x00	; 0
    1540:	61 15       	cp	r22, r1
    1542:	71 05       	cpc	r23, r1
    1544:	79 f1       	breq	.+94     	; 0x15a4 <Endpoint_Write_Control_Stream_LE+0x88>
    1546:	2e b3       	in	r18, 0x1e	; 30
    1548:	22 23       	and	r18, r18
    154a:	e1 f1       	breq	.+120    	; 0x15c4 <Endpoint_Write_Control_Stream_LE+0xa8>
    154c:	25 30       	cpi	r18, 0x05	; 5
    154e:	e1 f1       	breq	.+120    	; 0x15c8 <Endpoint_Write_Control_Stream_LE+0xac>
    1550:	20 91 e8 00 	lds	r18, 0x00E8	; 0x8000e8 <__EEPROM_REGION_LENGTH__+0x7f00e8>
    1554:	23 fd       	sbrc	r18, 3
    1556:	34 c0       	rjmp	.+104    	; 0x15c0 <Endpoint_Write_Control_Stream_LE+0xa4>
    1558:	20 91 e8 00 	lds	r18, 0x00E8	; 0x8000e8 <__EEPROM_REGION_LENGTH__+0x7f00e8>
    155c:	22 fd       	sbrc	r18, 2
    155e:	2a c0       	rjmp	.+84     	; 0x15b4 <Endpoint_Write_Control_Stream_LE+0x98>
    1560:	20 91 e8 00 	lds	r18, 0x00E8	; 0x8000e8 <__EEPROM_REGION_LENGTH__+0x7f00e8>
    1564:	20 ff       	sbrs	r18, 0
    1566:	ec cf       	rjmp	.-40     	; 0x1540 <Endpoint_Write_Control_Stream_LE+0x24>
    1568:	20 91 f2 00 	lds	r18, 0x00F2	; 0x8000f2 <__EEPROM_REGION_LENGTH__+0x7f00f2>
    156c:	30 e0       	ldi	r19, 0x00	; 0
    156e:	fc 01       	movw	r30, r24
    1570:	cf 01       	movw	r24, r30
    1572:	61 15       	cp	r22, r1
    1574:	71 05       	cpc	r23, r1
    1576:	59 f0       	breq	.+22     	; 0x158e <Endpoint_Write_Control_Stream_LE+0x72>
    1578:	28 30       	cpi	r18, 0x08	; 8
    157a:	31 05       	cpc	r19, r1
    157c:	40 f4       	brcc	.+16     	; 0x158e <Endpoint_Write_Control_Stream_LE+0x72>
    157e:	81 91       	ld	r24, Z+
    1580:	80 93 f1 00 	sts	0x00F1, r24	; 0x8000f1 <__EEPROM_REGION_LENGTH__+0x7f00f1>
    1584:	61 50       	subi	r22, 0x01	; 1
    1586:	71 09       	sbc	r23, r1
    1588:	2f 5f       	subi	r18, 0xFF	; 255
    158a:	3f 4f       	sbci	r19, 0xFF	; 255
    158c:	f1 cf       	rjmp	.-30     	; 0x1570 <Endpoint_Write_Control_Stream_LE+0x54>
    158e:	41 e0       	ldi	r20, 0x01	; 1
    1590:	28 30       	cpi	r18, 0x08	; 8
    1592:	31 05       	cpc	r19, r1
    1594:	09 f0       	breq	.+2      	; 0x1598 <Endpoint_Write_Control_Stream_LE+0x7c>
    1596:	40 e0       	ldi	r20, 0x00	; 0
    1598:	20 91 e8 00 	lds	r18, 0x00E8	; 0x8000e8 <__EEPROM_REGION_LENGTH__+0x7f00e8>
    159c:	2e 77       	andi	r18, 0x7E	; 126
    159e:	20 93 e8 00 	sts	0x00E8, r18	; 0x8000e8 <__EEPROM_REGION_LENGTH__+0x7f00e8>
    15a2:	ce cf       	rjmp	.-100    	; 0x1540 <Endpoint_Write_Control_Stream_LE+0x24>
    15a4:	41 11       	cpse	r20, r1
    15a6:	cf cf       	rjmp	.-98     	; 0x1546 <Endpoint_Write_Control_Stream_LE+0x2a>
    15a8:	05 c0       	rjmp	.+10     	; 0x15b4 <Endpoint_Write_Control_Stream_LE+0x98>
    15aa:	8e b3       	in	r24, 0x1e	; 30
    15ac:	88 23       	and	r24, r24
    15ae:	51 f0       	breq	.+20     	; 0x15c4 <Endpoint_Write_Control_Stream_LE+0xa8>
    15b0:	85 30       	cpi	r24, 0x05	; 5
    15b2:	51 f0       	breq	.+20     	; 0x15c8 <Endpoint_Write_Control_Stream_LE+0xac>
    15b4:	80 91 e8 00 	lds	r24, 0x00E8	; 0x8000e8 <__EEPROM_REGION_LENGTH__+0x7f00e8>
    15b8:	82 ff       	sbrs	r24, 2
    15ba:	f7 cf       	rjmp	.-18     	; 0x15aa <Endpoint_Write_Control_Stream_LE+0x8e>
    15bc:	80 e0       	ldi	r24, 0x00	; 0
    15be:	08 95       	ret
    15c0:	81 e0       	ldi	r24, 0x01	; 1
    15c2:	08 95       	ret
    15c4:	82 e0       	ldi	r24, 0x02	; 2
    15c6:	08 95       	ret
    15c8:	83 e0       	ldi	r24, 0x03	; 3
    15ca:	08 95       	ret

000015cc <Endpoint_Write_Control_PStream_LE>:
                            uint16_t Length)
{
	uint8_t* DataStream     = ((uint8_t*)Buffer + TEMPLATE_BUFFER_OFFSET(Length));
	bool     LastPacketFull = false;

	if (Length > USB_ControlRequest.wLength)
    15cc:	20 91 fc 02 	lds	r18, 0x02FC	; 0x8002fc <USB_ControlRequest+0x6>
    15d0:	30 91 fd 02 	lds	r19, 0x02FD	; 0x8002fd <USB_ControlRequest+0x7>
    15d4:	26 17       	cp	r18, r22
    15d6:	37 07       	cpc	r19, r23
    15d8:	48 f0       	brcs	.+18     	; 0x15ec <Endpoint_Write_Control_PStream_LE+0x20>
	  Length = USB_ControlRequest.wLength;
	else if (!(Length))
    15da:	61 15       	cp	r22, r1
    15dc:	71 05       	cpc	r23, r1
    15de:	39 f4       	brne	.+14     	; 0x15ee <Endpoint_Write_Control_PStream_LE+0x22>
			 */
			static inline void Endpoint_ClearIN(void) ATTR_ALWAYS_INLINE;
			static inline void Endpoint_ClearIN(void)
			{
				#if !defined(CONTROL_ONLY_DEVICE)
					UEINTX &= ~((1 << TXINI) | (1 << FIFOCON));
    15e0:	20 91 e8 00 	lds	r18, 0x00E8	; 0x8000e8 <__EEPROM_REGION_LENGTH__+0x7f00e8>
    15e4:	2e 77       	andi	r18, 0x7E	; 126
    15e6:	20 93 e8 00 	sts	0x00E8, r18	; 0x8000e8 <__EEPROM_REGION_LENGTH__+0x7f00e8>
    15ea:	01 c0       	rjmp	.+2      	; 0x15ee <Endpoint_Write_Control_PStream_LE+0x22>
    15ec:	b9 01       	movw	r22, r18
    15ee:	fc 01       	movw	r30, r24
    15f0:	20 e0       	ldi	r18, 0x00	; 0
	  Endpoint_ClearIN();

	while (Length || LastPacketFull)
    15f2:	61 15       	cp	r22, r1
    15f4:	71 05       	cpc	r23, r1
    15f6:	61 f1       	breq	.+88     	; 0x1650 <Endpoint_Write_Control_PStream_LE+0x84>
	{
		uint8_t USB_DeviceState_LCL = USB_DeviceState;
    15f8:	8e b3       	in	r24, 0x1e	; 30

		if (USB_DeviceState_LCL == DEVICE_STATE_Unattached)
    15fa:	88 23       	and	r24, r24
    15fc:	c9 f1       	breq	.+114    	; 0x1670 <Endpoint_Write_Control_PStream_LE+0xa4>
		  return ENDPOINT_RWCSTREAM_DeviceDisconnected;
		else if (USB_DeviceState_LCL == DEVICE_STATE_Suspended)
    15fe:	85 30       	cpi	r24, 0x05	; 5
    1600:	c9 f1       	breq	.+114    	; 0x1674 <Endpoint_Write_Control_PStream_LE+0xa8>
			 *  \return Boolean \c true if the selected endpoint has received a SETUP packet, \c false otherwise.
			 */
			static inline bool Endpoint_IsSETUPReceived(void) ATTR_WARN_UNUSED_RESULT ATTR_ALWAYS_INLINE;
			static inline bool Endpoint_IsSETUPReceived(void)
			{
				return ((UEINTX & (1 << RXSTPI)) ? true : false);
    1602:	80 91 e8 00 	lds	r24, 0x00E8	; 0x8000e8 <__EEPROM_REGION_LENGTH__+0x7f00e8>
		  return ENDPOINT_RWCSTREAM_BusSuspended;
		else if (Endpoint_IsSETUPReceived())
    1606:	83 fd       	sbrc	r24, 3
    1608:	31 c0       	rjmp	.+98     	; 0x166c <Endpoint_Write_Control_PStream_LE+0xa0>
			 *  \return Boolean \c true if current endpoint is has received an OUT packet, \c false otherwise.
			 */
			static inline bool Endpoint_IsOUTReceived(void) ATTR_WARN_UNUSED_RESULT ATTR_ALWAYS_INLINE;
			static inline bool Endpoint_IsOUTReceived(void)
			{
				return ((UEINTX & (1 << RXOUTI)) ? true : false);
    160a:	80 91 e8 00 	lds	r24, 0x00E8	; 0x8000e8 <__EEPROM_REGION_LENGTH__+0x7f00e8>
		  return ENDPOINT_RWCSTREAM_HostAborted;
		else if (Endpoint_IsOUTReceived())
    160e:	82 fd       	sbrc	r24, 2
    1610:	27 c0       	rjmp	.+78     	; 0x1660 <Endpoint_Write_Control_PStream_LE+0x94>
			 *  \return Boolean \c true if the current endpoint is ready for an IN packet, \c false otherwise.
			 */
			static inline bool Endpoint_IsINReady(void) ATTR_WARN_UNUSED_RESULT ATTR_ALWAYS_INLINE;
			static inline bool Endpoint_IsINReady(void)
			{
				return ((UEINTX & (1 << TXINI)) ? true : false);
    1612:	80 91 e8 00 	lds	r24, 0x00E8	; 0x8000e8 <__EEPROM_REGION_LENGTH__+0x7f00e8>
		  break;

		if (Endpoint_IsINReady())
    1616:	80 ff       	sbrs	r24, 0
    1618:	ec cf       	rjmp	.-40     	; 0x15f2 <Endpoint_Write_Control_PStream_LE+0x26>
				#if (defined(USB_SERIES_6_AVR) || defined(USB_SERIES_7_AVR))
					return UEBCX;
				#elif defined(USB_SERIES_4_AVR)
					return (((uint16_t)UEBCHX << 8) | UEBCLX);
				#elif defined(USB_SERIES_2_AVR)
					return UEBCLX;
    161a:	80 91 f2 00 	lds	r24, 0x00F2	; 0x8000f2 <__EEPROM_REGION_LENGTH__+0x7f00f2>
    161e:	90 e0       	ldi	r25, 0x00	; 0
		{
			uint16_t BytesInEndpoint = Endpoint_BytesInEndpoint();

			while (Length && (BytesInEndpoint < USB_Device_ControlEndpointSize))
    1620:	61 15       	cp	r22, r1
    1622:	71 05       	cpc	r23, r1
    1624:	59 f0       	breq	.+22     	; 0x163c <Endpoint_Write_Control_PStream_LE+0x70>
    1626:	88 30       	cpi	r24, 0x08	; 8
    1628:	91 05       	cpc	r25, r1
    162a:	40 f4       	brcc	.+16     	; 0x163c <Endpoint_Write_Control_PStream_LE+0x70>
			{
				TEMPLATE_TRANSFER_BYTE(DataStream);
    162c:	24 91       	lpm	r18, Z
			 *  \param[in] Data  Data to write into the the currently selected endpoint's FIFO buffer.
			 */
			static inline void Endpoint_Write_8(const uint8_t Data) ATTR_ALWAYS_INLINE;
			static inline void Endpoint_Write_8(const uint8_t Data)
			{
				UEDATX = Data;
    162e:	20 93 f1 00 	sts	0x00F1, r18	; 0x8000f1 <__EEPROM_REGION_LENGTH__+0x7f00f1>
				TEMPLATE_BUFFER_MOVE(DataStream, 1);
    1632:	31 96       	adiw	r30, 0x01	; 1
				Length--;
    1634:	61 50       	subi	r22, 0x01	; 1
    1636:	71 09       	sbc	r23, r1
				BytesInEndpoint++;
    1638:	01 96       	adiw	r24, 0x01	; 1
    163a:	f2 cf       	rjmp	.-28     	; 0x1620 <Endpoint_Write_Control_PStream_LE+0x54>
			}

			LastPacketFull = (BytesInEndpoint == USB_Device_ControlEndpointSize);
    163c:	21 e0       	ldi	r18, 0x01	; 1
    163e:	08 97       	sbiw	r24, 0x08	; 8
    1640:	09 f0       	breq	.+2      	; 0x1644 <Endpoint_Write_Control_PStream_LE+0x78>
    1642:	20 e0       	ldi	r18, 0x00	; 0
			 */
			static inline void Endpoint_ClearIN(void) ATTR_ALWAYS_INLINE;
			static inline void Endpoint_ClearIN(void)
			{
				#if !defined(CONTROL_ONLY_DEVICE)
					UEINTX &= ~((1 << TXINI) | (1 << FIFOCON));
    1644:	80 91 e8 00 	lds	r24, 0x00E8	; 0x8000e8 <__EEPROM_REGION_LENGTH__+0x7f00e8>
    1648:	8e 77       	andi	r24, 0x7E	; 126
    164a:	80 93 e8 00 	sts	0x00E8, r24	; 0x8000e8 <__EEPROM_REGION_LENGTH__+0x7f00e8>
    164e:	d1 cf       	rjmp	.-94     	; 0x15f2 <Endpoint_Write_Control_PStream_LE+0x26>
	if (Length > USB_ControlRequest.wLength)
	  Length = USB_ControlRequest.wLength;
	else if (!(Length))
	  Endpoint_ClearIN();

	while (Length || LastPacketFull)
    1650:	21 11       	cpse	r18, r1
    1652:	d2 cf       	rjmp	.-92     	; 0x15f8 <Endpoint_Write_Control_PStream_LE+0x2c>
    1654:	05 c0       	rjmp	.+10     	; 0x1660 <Endpoint_Write_Control_PStream_LE+0x94>
		}
	}

	while (!(Endpoint_IsOUTReceived()))
	{
		uint8_t USB_DeviceState_LCL = USB_DeviceState;
    1656:	8e b3       	in	r24, 0x1e	; 30

		if (USB_DeviceState_LCL == DEVICE_STATE_Unattached)
    1658:	88 23       	and	r24, r24
    165a:	51 f0       	breq	.+20     	; 0x1670 <Endpoint_Write_Control_PStream_LE+0xa4>
		  return ENDPOINT_RWCSTREAM_DeviceDisconnected;
		else if (USB_DeviceState_LCL == DEVICE_STATE_Suspended)
    165c:	85 30       	cpi	r24, 0x05	; 5
    165e:	51 f0       	breq	.+20     	; 0x1674 <Endpoint_Write_Control_PStream_LE+0xa8>
			 *  \return Boolean \c true if current endpoint is has received an OUT packet, \c false otherwise.
			 */
			static inline bool Endpoint_IsOUTReceived(void) ATTR_WARN_UNUSED_RESULT ATTR_ALWAYS_INLINE;
			static inline bool Endpoint_IsOUTReceived(void)
			{
				return ((UEINTX & (1 << RXOUTI)) ? true : false);
    1660:	80 91 e8 00 	lds	r24, 0x00E8	; 0x8000e8 <__EEPROM_REGION_LENGTH__+0x7f00e8>
			LastPacketFull = (BytesInEndpoint == USB_Device_ControlEndpointSize);
			Endpoint_ClearIN();
		}
	}

	while (!(Endpoint_IsOUTReceived()))
    1664:	82 ff       	sbrs	r24, 2
    1666:	f7 cf       	rjmp	.-18     	; 0x1656 <Endpoint_Write_Control_PStream_LE+0x8a>
		  return ENDPOINT_RWCSTREAM_DeviceDisconnected;
		else if (USB_DeviceState_LCL == DEVICE_STATE_Suspended)
		  return ENDPOINT_RWCSTREAM_BusSuspended;
	}

	return ENDPOINT_RWCSTREAM_NoError;
    1668:	80 e0       	ldi	r24, 0x00	; 0
    166a:	08 95       	ret
		if (USB_DeviceState_LCL == DEVICE_STATE_Unattached)
		  return ENDPOINT_RWCSTREAM_DeviceDisconnected;
		else if (USB_DeviceState_LCL == DEVICE_STATE_Suspended)
		  return ENDPOINT_RWCSTREAM_BusSuspended;
		else if (Endpoint_IsSETUPReceived())
		  return ENDPOINT_RWCSTREAM_HostAborted;
    166c:	81 e0       	ldi	r24, 0x01	; 1
    166e:	08 95       	ret
	while (Length || LastPacketFull)
	{
		uint8_t USB_DeviceState_LCL = USB_DeviceState;

		if (USB_DeviceState_LCL == DEVICE_STATE_Unattached)
		  return ENDPOINT_RWCSTREAM_DeviceDisconnected;
    1670:	82 e0       	ldi	r24, 0x02	; 2
    1672:	08 95       	ret
		else if (USB_DeviceState_LCL == DEVICE_STATE_Suspended)
		  return ENDPOINT_RWCSTREAM_BusSuspended;
    1674:	83 e0       	ldi	r24, 0x03	; 3
		else if (USB_DeviceState_LCL == DEVICE_STATE_Suspended)
		  return ENDPOINT_RWCSTREAM_BusSuspended;
	}

	return ENDPOINT_RWCSTREAM_NoError;
}
    1676:	08 95       	ret

00001678 <Endpoint_ConfigureEndpoint_Prv>:
		UEIENX  = 0;
		UEINTX  = 0;
		UECFG1X = 0;
		Endpoint_DisableEndpoint();
	}
}
    1678:	98 2f       	mov	r25, r24
    167a:	95 30       	cpi	r25, 0x05	; 5
    167c:	58 f5       	brcc	.+86     	; 0x16d4 <Endpoint_ConfigureEndpoint_Prv+0x5c>
    167e:	90 93 e9 00 	sts	0x00E9, r25	; 0x8000e9 <__EEPROM_REGION_LENGTH__+0x7f00e9>
    1682:	98 17       	cp	r25, r24
    1684:	39 f0       	breq	.+14     	; 0x1694 <Endpoint_ConfigureEndpoint_Prv+0x1c>
    1686:	70 91 ec 00 	lds	r23, 0x00EC	; 0x8000ec <__EEPROM_REGION_LENGTH__+0x7f00ec>
    168a:	20 91 ed 00 	lds	r18, 0x00ED	; 0x8000ed <__EEPROM_REGION_LENGTH__+0x7f00ed>
    168e:	50 91 f0 00 	lds	r21, 0x00F0	; 0x8000f0 <__EEPROM_REGION_LENGTH__+0x7f00f0>
    1692:	03 c0       	rjmp	.+6      	; 0x169a <Endpoint_ConfigureEndpoint_Prv+0x22>
    1694:	24 2f       	mov	r18, r20
    1696:	76 2f       	mov	r23, r22
    1698:	50 e0       	ldi	r21, 0x00	; 0
    169a:	21 ff       	sbrs	r18, 1
    169c:	19 c0       	rjmp	.+50     	; 0x16d0 <Endpoint_ConfigureEndpoint_Prv+0x58>
    169e:	30 91 eb 00 	lds	r19, 0x00EB	; 0x8000eb <__EEPROM_REGION_LENGTH__+0x7f00eb>
    16a2:	3e 7f       	andi	r19, 0xFE	; 254
    16a4:	30 93 eb 00 	sts	0x00EB, r19	; 0x8000eb <__EEPROM_REGION_LENGTH__+0x7f00eb>
    16a8:	30 91 ed 00 	lds	r19, 0x00ED	; 0x8000ed <__EEPROM_REGION_LENGTH__+0x7f00ed>
    16ac:	3d 7f       	andi	r19, 0xFD	; 253
    16ae:	30 93 ed 00 	sts	0x00ED, r19	; 0x8000ed <__EEPROM_REGION_LENGTH__+0x7f00ed>
    16b2:	30 91 eb 00 	lds	r19, 0x00EB	; 0x8000eb <__EEPROM_REGION_LENGTH__+0x7f00eb>
    16b6:	31 60       	ori	r19, 0x01	; 1
    16b8:	30 93 eb 00 	sts	0x00EB, r19	; 0x8000eb <__EEPROM_REGION_LENGTH__+0x7f00eb>
    16bc:	70 93 ec 00 	sts	0x00EC, r23	; 0x8000ec <__EEPROM_REGION_LENGTH__+0x7f00ec>
    16c0:	20 93 ed 00 	sts	0x00ED, r18	; 0x8000ed <__EEPROM_REGION_LENGTH__+0x7f00ed>
    16c4:	50 93 f0 00 	sts	0x00F0, r21	; 0x8000f0 <__EEPROM_REGION_LENGTH__+0x7f00f0>
    16c8:	20 91 ee 00 	lds	r18, 0x00EE	; 0x8000ee <__EEPROM_REGION_LENGTH__+0x7f00ee>
    16cc:	27 ff       	sbrs	r18, 7
    16ce:	07 c0       	rjmp	.+14     	; 0x16de <Endpoint_ConfigureEndpoint_Prv+0x66>
    16d0:	9f 5f       	subi	r25, 0xFF	; 255
    16d2:	d3 cf       	rjmp	.-90     	; 0x167a <Endpoint_ConfigureEndpoint_Prv+0x2>
    16d4:	8f 70       	andi	r24, 0x0F	; 15
    16d6:	80 93 e9 00 	sts	0x00E9, r24	; 0x8000e9 <__EEPROM_REGION_LENGTH__+0x7f00e9>
    16da:	81 e0       	ldi	r24, 0x01	; 1
    16dc:	08 95       	ret
    16de:	80 e0       	ldi	r24, 0x00	; 0
    16e0:	08 95       	ret

000016e2 <Endpoint_ConfigureEndpointTable>:
    16e2:	ef 92       	push	r14
    16e4:	ff 92       	push	r15
    16e6:	0f 93       	push	r16
    16e8:	1f 93       	push	r17
    16ea:	cf 93       	push	r28
    16ec:	df 93       	push	r29
    16ee:	e6 2e       	mov	r14, r22
    16f0:	ec 01       	movw	r28, r24
    16f2:	8c 01       	movw	r16, r24
    16f4:	0c 5f       	subi	r16, 0xFC	; 252
    16f6:	1f 4f       	sbci	r17, 0xFF	; 255
    16f8:	f1 2c       	mov	r15, r1
    16fa:	fe 14       	cp	r15, r14
    16fc:	99 f1       	breq	.+102    	; 0x1764 <Endpoint_ConfigureEndpointTable+0x82>
    16fe:	98 81       	ld	r25, Y
    1700:	99 23       	and	r25, r25
    1702:	59 f1       	breq	.+86     	; 0x175a <Endpoint_ConfigureEndpointTable+0x78>
    1704:	f8 01       	movw	r30, r16
    1706:	20 81       	ld	r18, Z
    1708:	69 81       	ldd	r22, Y+1	; 0x01
    170a:	7a 81       	ldd	r23, Y+2	; 0x02
    170c:	31 97       	sbiw	r30, 0x01	; 1
    170e:	30 81       	ld	r19, Z
    1710:	89 2f       	mov	r24, r25
    1712:	8f 70       	andi	r24, 0x0F	; 15
    1714:	85 30       	cpi	r24, 0x05	; 5
    1716:	10 f0       	brcs	.+4      	; 0x171c <Endpoint_ConfigureEndpointTable+0x3a>
    1718:	80 e0       	ldi	r24, 0x00	; 0
    171a:	25 c0       	rjmp	.+74     	; 0x1766 <Endpoint_ConfigureEndpointTable+0x84>
    171c:	22 30       	cpi	r18, 0x02	; 2
    171e:	10 f4       	brcc	.+4      	; 0x1724 <Endpoint_ConfigureEndpointTable+0x42>
    1720:	42 e0       	ldi	r20, 0x02	; 2
    1722:	01 c0       	rjmp	.+2      	; 0x1726 <Endpoint_ConfigureEndpointTable+0x44>
    1724:	46 e0       	ldi	r20, 0x06	; 6
    1726:	e8 e0       	ldi	r30, 0x08	; 8
    1728:	f0 e0       	ldi	r31, 0x00	; 0
    172a:	20 e0       	ldi	r18, 0x00	; 0
    172c:	e6 17       	cp	r30, r22
    172e:	f7 07       	cpc	r31, r23
    1730:	20 f4       	brcc	.+8      	; 0x173a <Endpoint_ConfigureEndpointTable+0x58>
    1732:	2f 5f       	subi	r18, 0xFF	; 255
    1734:	ee 0f       	add	r30, r30
    1736:	ff 1f       	adc	r31, r31
    1738:	f9 cf       	rjmp	.-14     	; 0x172c <Endpoint_ConfigureEndpointTable+0x4a>
    173a:	22 95       	swap	r18
    173c:	20 7f       	andi	r18, 0xF0	; 240
    173e:	42 2b       	or	r20, r18
    1740:	23 2f       	mov	r18, r19
    1742:	22 95       	swap	r18
    1744:	22 0f       	add	r18, r18
    1746:	22 0f       	add	r18, r18
    1748:	20 7c       	andi	r18, 0xC0	; 192
    174a:	99 1f       	adc	r25, r25
    174c:	99 27       	eor	r25, r25
    174e:	99 1f       	adc	r25, r25
    1750:	62 2f       	mov	r22, r18
    1752:	69 2b       	or	r22, r25
    1754:	91 df       	rcall	.-222    	; 0x1678 <Endpoint_ConfigureEndpoint_Prv>
    1756:	88 23       	and	r24, r24
    1758:	f9 f2       	breq	.-66     	; 0x1718 <Endpoint_ConfigureEndpointTable+0x36>
    175a:	f3 94       	inc	r15
    175c:	25 96       	adiw	r28, 0x05	; 5
    175e:	0b 5f       	subi	r16, 0xFB	; 251
    1760:	1f 4f       	sbci	r17, 0xFF	; 255
    1762:	cb cf       	rjmp	.-106    	; 0x16fa <Endpoint_ConfigureEndpointTable+0x18>
    1764:	81 e0       	ldi	r24, 0x01	; 1
    1766:	df 91       	pop	r29
    1768:	cf 91       	pop	r28
    176a:	1f 91       	pop	r17
    176c:	0f 91       	pop	r16
    176e:	ff 90       	pop	r15
    1770:	ef 90       	pop	r14
    1772:	08 95       	ret

00001774 <Endpoint_ClearStatusStage>:

void Endpoint_ClearStatusStage(void)
{
	if (USB_ControlRequest.bmRequestType & REQDIR_DEVICETOHOST)
    1774:	80 91 f6 02 	lds	r24, 0x02F6	; 0x8002f6 <USB_ControlRequest>
    1778:	87 ff       	sbrs	r24, 7
    177a:	0f c0       	rjmp	.+30     	; 0x179a <Endpoint_ClearStatusStage+0x26>
			 *  \return Boolean \c true if current endpoint is has received an OUT packet, \c false otherwise.
			 */
			static inline bool Endpoint_IsOUTReceived(void) ATTR_WARN_UNUSED_RESULT ATTR_ALWAYS_INLINE;
			static inline bool Endpoint_IsOUTReceived(void)
			{
				return ((UEINTX & (1 << RXOUTI)) ? true : false);
    177c:	80 91 e8 00 	lds	r24, 0x00E8	; 0x8000e8 <__EEPROM_REGION_LENGTH__+0x7f00e8>
	{
		while (!(Endpoint_IsOUTReceived()))
    1780:	82 fd       	sbrc	r24, 2
    1782:	04 c0       	rjmp	.+8      	; 0x178c <Endpoint_ClearStatusStage+0x18>
		{
			if (USB_DeviceState == DEVICE_STATE_Unattached)
    1784:	8e b3       	in	r24, 0x1e	; 30
    1786:	81 11       	cpse	r24, r1
    1788:	f9 cf       	rjmp	.-14     	; 0x177c <Endpoint_ClearStatusStage+0x8>
    178a:	10 c0       	rjmp	.+32     	; 0x17ac <Endpoint_ClearStatusStage+0x38>
			 */
			static inline void Endpoint_ClearOUT(void) ATTR_ALWAYS_INLINE;
			static inline void Endpoint_ClearOUT(void)
			{
				#if !defined(CONTROL_ONLY_DEVICE)
					UEINTX &= ~((1 << RXOUTI) | (1 << FIFOCON));
    178c:	80 91 e8 00 	lds	r24, 0x00E8	; 0x8000e8 <__EEPROM_REGION_LENGTH__+0x7f00e8>
    1790:	8b 77       	andi	r24, 0x7B	; 123
    1792:	0a c0       	rjmp	.+20     	; 0x17a8 <Endpoint_ClearStatusStage+0x34>
	}
	else
	{
		while (!(Endpoint_IsINReady()))
		{
			if (USB_DeviceState == DEVICE_STATE_Unattached)
    1794:	8e b3       	in	r24, 0x1e	; 30
    1796:	88 23       	and	r24, r24
    1798:	49 f0       	breq	.+18     	; 0x17ac <Endpoint_ClearStatusStage+0x38>
			 *  \return Boolean \c true if the current endpoint is ready for an IN packet, \c false otherwise.
			 */
			static inline bool Endpoint_IsINReady(void) ATTR_WARN_UNUSED_RESULT ATTR_ALWAYS_INLINE;
			static inline bool Endpoint_IsINReady(void)
			{
				return ((UEINTX & (1 << TXINI)) ? true : false);
    179a:	80 91 e8 00 	lds	r24, 0x00E8	; 0x8000e8 <__EEPROM_REGION_LENGTH__+0x7f00e8>

		Endpoint_ClearOUT();
	}
	else
	{
		while (!(Endpoint_IsINReady()))
    179e:	80 ff       	sbrs	r24, 0
    17a0:	f9 cf       	rjmp	.-14     	; 0x1794 <Endpoint_ClearStatusStage+0x20>
			 */
			static inline void Endpoint_ClearIN(void) ATTR_ALWAYS_INLINE;
			static inline void Endpoint_ClearIN(void)
			{
				#if !defined(CONTROL_ONLY_DEVICE)
					UEINTX &= ~((1 << TXINI) | (1 << FIFOCON));
    17a2:	80 91 e8 00 	lds	r24, 0x00E8	; 0x8000e8 <__EEPROM_REGION_LENGTH__+0x7f00e8>
    17a6:	8e 77       	andi	r24, 0x7E	; 126
    17a8:	80 93 e8 00 	sts	0x00E8, r24	; 0x8000e8 <__EEPROM_REGION_LENGTH__+0x7f00e8>
    17ac:	08 95       	ret

000017ae <Endpoint_WaitUntilReady>:
			 *  \return Current USB frame number from the USB controller.
			 */
			static inline uint16_t USB_Device_GetFrameNumber(void) ATTR_ALWAYS_INLINE ATTR_WARN_UNUSED_RESULT;
			static inline uint16_t USB_Device_GetFrameNumber(void)
			{
				return UDFNUM;
    17ae:	20 91 e4 00 	lds	r18, 0x00E4	; 0x8000e4 <__EEPROM_REGION_LENGTH__+0x7f00e4>
    17b2:	30 91 e5 00 	lds	r19, 0x00E5	; 0x8000e5 <__EEPROM_REGION_LENGTH__+0x7f00e5>
    17b6:	95 e6       	ldi	r25, 0x65	; 101
			 *  \return The currently selected endpoint's direction, as a \c ENDPOINT_DIR_* mask.
			 */
			static inline uint8_t Endpoint_GetEndpointDirection(void) ATTR_WARN_UNUSED_RESULT ATTR_ALWAYS_INLINE;
			static inline uint8_t Endpoint_GetEndpointDirection(void)
			{
				return (UECFG0X & (1 << EPDIR)) ? ENDPOINT_DIR_IN : ENDPOINT_DIR_OUT;
    17b8:	40 91 ec 00 	lds	r20, 0x00EC	; 0x8000ec <__EEPROM_REGION_LENGTH__+0x7f00ec>
    17bc:	84 2f       	mov	r24, r20
    17be:	81 70       	andi	r24, 0x01	; 1
    17c0:	40 ff       	sbrs	r20, 0
    17c2:	21 c0       	rjmp	.+66     	; 0x1806 <Endpoint_WaitUntilReady+0x58>
			 *  \return Boolean \c true if the current endpoint is ready for an IN packet, \c false otherwise.
			 */
			static inline bool Endpoint_IsINReady(void) ATTR_WARN_UNUSED_RESULT ATTR_ALWAYS_INLINE;
			static inline bool Endpoint_IsINReady(void)
			{
				return ((UEINTX & (1 << TXINI)) ? true : false);
    17c4:	80 91 e8 00 	lds	r24, 0x00E8	; 0x8000e8 <__EEPROM_REGION_LENGTH__+0x7f00e8>

	for (;;)
	{
		if (Endpoint_GetEndpointDirection() == ENDPOINT_DIR_IN)
		{
			if (Endpoint_IsINReady())
    17c8:	80 fd       	sbrc	r24, 0
    17ca:	1b c0       	rjmp	.+54     	; 0x1802 <Endpoint_WaitUntilReady+0x54>
		{
			if (Endpoint_IsOUTReceived())
			  return ENDPOINT_READYWAIT_NoError;
		}

		uint8_t USB_DeviceState_LCL = USB_DeviceState;
    17cc:	8e b3       	in	r24, 0x1e	; 30

		if (USB_DeviceState_LCL == DEVICE_STATE_Unattached)
    17ce:	88 23       	and	r24, r24
    17d0:	91 f0       	breq	.+36     	; 0x17f6 <Endpoint_WaitUntilReady+0x48>
		  return ENDPOINT_READYWAIT_DeviceDisconnected;
		else if (USB_DeviceState_LCL == DEVICE_STATE_Suspended)
    17d2:	85 30       	cpi	r24, 0x05	; 5
    17d4:	91 f0       	breq	.+36     	; 0x17fa <Endpoint_WaitUntilReady+0x4c>
			 *  \return Boolean \c true if the currently selected endpoint is stalled, \c false otherwise.
			 */
			static inline bool Endpoint_IsStalled(void) ATTR_WARN_UNUSED_RESULT ATTR_ALWAYS_INLINE;
			static inline bool Endpoint_IsStalled(void)
			{
				return ((UECONX & (1 << STALLRQ)) ? true : false);
    17d6:	80 91 eb 00 	lds	r24, 0x00EB	; 0x8000eb <__EEPROM_REGION_LENGTH__+0x7f00eb>
		  return ENDPOINT_READYWAIT_BusSuspended;
		else if (Endpoint_IsStalled())
    17da:	85 fd       	sbrc	r24, 5
    17dc:	10 c0       	rjmp	.+32     	; 0x17fe <Endpoint_WaitUntilReady+0x50>
    17de:	40 91 e4 00 	lds	r20, 0x00E4	; 0x8000e4 <__EEPROM_REGION_LENGTH__+0x7f00e4>
    17e2:	50 91 e5 00 	lds	r21, 0x00E5	; 0x8000e5 <__EEPROM_REGION_LENGTH__+0x7f00e5>
		  return ENDPOINT_READYWAIT_EndpointStalled;

		uint16_t CurrentFrameNumber = USB_Device_GetFrameNumber();

		if (CurrentFrameNumber != PreviousFrameNumber)
    17e6:	42 17       	cp	r20, r18
    17e8:	53 07       	cpc	r21, r19
    17ea:	31 f3       	breq	.-52     	; 0x17b8 <Endpoint_WaitUntilReady+0xa>
    17ec:	9a 01       	movw	r18, r20
    17ee:	91 50       	subi	r25, 0x01	; 1
		{
			PreviousFrameNumber = CurrentFrameNumber;

			if (!(TimeoutMSRem--))
    17f0:	19 f7       	brne	.-58     	; 0x17b8 <Endpoint_WaitUntilReady+0xa>
			  return ENDPOINT_READYWAIT_Timeout;
    17f2:	84 e0       	ldi	r24, 0x04	; 4
    17f4:	08 95       	ret
		}

		uint8_t USB_DeviceState_LCL = USB_DeviceState;

		if (USB_DeviceState_LCL == DEVICE_STATE_Unattached)
		  return ENDPOINT_READYWAIT_DeviceDisconnected;
    17f6:	82 e0       	ldi	r24, 0x02	; 2
    17f8:	08 95       	ret
		else if (USB_DeviceState_LCL == DEVICE_STATE_Suspended)
		  return ENDPOINT_READYWAIT_BusSuspended;
    17fa:	83 e0       	ldi	r24, 0x03	; 3
    17fc:	08 95       	ret
		else if (Endpoint_IsStalled())
		  return ENDPOINT_READYWAIT_EndpointStalled;
    17fe:	81 e0       	ldi	r24, 0x01	; 1
    1800:	08 95       	ret
	for (;;)
	{
		if (Endpoint_GetEndpointDirection() == ENDPOINT_DIR_IN)
		{
			if (Endpoint_IsINReady())
			  return ENDPOINT_READYWAIT_NoError;
    1802:	80 e0       	ldi	r24, 0x00	; 0
    1804:	08 95       	ret
			 *  \return Boolean \c true if current endpoint is has received an OUT packet, \c false otherwise.
			 */
			static inline bool Endpoint_IsOUTReceived(void) ATTR_WARN_UNUSED_RESULT ATTR_ALWAYS_INLINE;
			static inline bool Endpoint_IsOUTReceived(void)
			{
				return ((UEINTX & (1 << RXOUTI)) ? true : false);
    1806:	40 91 e8 00 	lds	r20, 0x00E8	; 0x8000e8 <__EEPROM_REGION_LENGTH__+0x7f00e8>
		}
		else
		{
			if (Endpoint_IsOUTReceived())
    180a:	42 ff       	sbrs	r20, 2
    180c:	df cf       	rjmp	.-66     	; 0x17cc <Endpoint_WaitUntilReady+0x1e>

			if (!(TimeoutMSRem--))
			  return ENDPOINT_READYWAIT_Timeout;
		}
	}
}
    180e:	08 95       	ret

00001810 <USB_ResetInterface>:
{
	#if defined(USB_CAN_BE_BOTH)
	bool UIDModeSelectEnabled = ((UHWCON & (1 << UIDE)) != 0);
	#endif

	USB_INT_DisableAllInterrupts();
    1810:	3f d0       	rcall	.+126    	; 0x1890 <USB_INT_DisableAllInterrupts>
	USB_INT_ClearAllInterrupts();
    1812:	41 d0       	rcall	.+130    	; 0x1896 <USB_INT_ClearAllInterrupts>
			}

			static inline void USB_Controller_Reset(void) ATTR_ALWAYS_INLINE;
			static inline void USB_Controller_Reset(void)
			{
				USBCON &= ~(1 << USBE);
    1814:	80 91 d8 00 	lds	r24, 0x00D8	; 0x8000d8 <__EEPROM_REGION_LENGTH__+0x7f00d8>
    1818:	8f 77       	andi	r24, 0x7F	; 127
    181a:	80 93 d8 00 	sts	0x00D8, r24	; 0x8000d8 <__EEPROM_REGION_LENGTH__+0x7f00d8>
				USBCON |=  (1 << USBE);
    181e:	80 91 d8 00 	lds	r24, 0x00D8	; 0x8000d8 <__EEPROM_REGION_LENGTH__+0x7f00d8>
    1822:	80 68       	ori	r24, 0x80	; 128
    1824:	80 93 d8 00 	sts	0x00D8, r24	; 0x8000d8 <__EEPROM_REGION_LENGTH__+0x7f00d8>
			}

			static inline void USB_CLK_Unfreeze(void) ATTR_ALWAYS_INLINE;
			static inline void USB_CLK_Unfreeze(void)
			{
				USBCON &= ~(1 << FRZCLK);
    1828:	80 91 d8 00 	lds	r24, 0x00D8	; 0x8000d8 <__EEPROM_REGION_LENGTH__+0x7f00d8>
    182c:	8f 7d       	andi	r24, 0xDF	; 223
    182e:	80 93 d8 00 	sts	0x00D8, r24	; 0x8000d8 <__EEPROM_REGION_LENGTH__+0x7f00d8>

		/* Inline Functions: */
			static inline void USB_PLL_On(void) ATTR_ALWAYS_INLINE;
			static inline void USB_PLL_On(void)
			{
				PLLCSR = USB_PLL_PSC;
    1832:	19 bc       	out	0x29, r1	; 41
				PLLCSR = (USB_PLL_PSC | (1 << PLLE));
    1834:	82 e0       	ldi	r24, 0x02	; 2
    1836:	89 bd       	out	0x29, r24	; 41

		if (!(USB_Options & USB_OPT_MANUAL_PLL))
		{
			#if defined(USB_SERIES_2_AVR)
			USB_PLL_On();
			while (!(USB_PLL_IsReady()));
    1838:	09 b4       	in	r0, 0x29	; 41
    183a:	00 fe       	sbrs	r0, 0
    183c:	fd cf       	rjmp	.-6      	; 0x1838 <USB_ResetInterface+0x28>
}

#if defined(USB_CAN_BE_DEVICE)
static void USB_Init_Device(void)
{
	USB_DeviceState                 = DEVICE_STATE_Unattached;
    183e:	1e ba       	out	0x1e, r1	; 30
	USB_Device_ConfigurationNumber  = 0;
    1840:	10 92 f2 02 	sts	0x02F2, r1	; 0x8002f2 <USB_Device_ConfigurationNumber>

	#if !defined(NO_DEVICE_REMOTE_WAKEUP)
	USB_Device_RemoteWakeupEnabled  = false;
    1844:	10 92 f4 02 	sts	0x02F4, r1	; 0x8002f4 <USB_Device_RemoteWakeupEnabled>
	#endif

	#if !defined(NO_DEVICE_SELF_POWER)
	USB_Device_CurrentlySelfPowered = false;
    1848:	10 92 f3 02 	sts	0x02F3, r1	; 0x8002f3 <USB_Device_CurrentlySelfPowered>
				uint8_t Number = (Address & ENDPOINT_EPNUM_MASK);

				if (Number >= ENDPOINT_TOTAL_ENDPOINTS)
				  return false;

				return Endpoint_ConfigureEndpoint_Prv(Number,
    184c:	42 e0       	ldi	r20, 0x02	; 2
    184e:	60 e0       	ldi	r22, 0x00	; 0
    1850:	80 e0       	ldi	r24, 0x00	; 0
    1852:	12 df       	rcall	.-476    	; 0x1678 <Endpoint_ConfigureEndpoint_Prv>
					#if defined(USB_CAN_BE_DEVICE)
					case USB_INT_WAKEUPI:
						UDINT  &= ~(1 << WAKEUPI);
						break;
					case USB_INT_SUSPI:
						UDINT  &= ~(1 << SUSPI);
    1854:	80 91 e1 00 	lds	r24, 0x00E1	; 0x8000e1 <__EEPROM_REGION_LENGTH__+0x7f00e1>
    1858:	8e 7f       	andi	r24, 0xFE	; 254
    185a:	80 93 e1 00 	sts	0x00E1, r24	; 0x8000e1 <__EEPROM_REGION_LENGTH__+0x7f00e1>
					#if defined(USB_CAN_BE_DEVICE)
					case USB_INT_WAKEUPI:
						UDIEN  |= (1 << WAKEUPE);
						break;
					case USB_INT_SUSPI:
						UDIEN  |= (1 << SUSPE);
    185e:	80 91 e2 00 	lds	r24, 0x00E2	; 0x8000e2 <__EEPROM_REGION_LENGTH__+0x7f00e2>
    1862:	81 60       	ori	r24, 0x01	; 1
    1864:	80 93 e2 00 	sts	0x00E2, r24	; 0x8000e2 <__EEPROM_REGION_LENGTH__+0x7f00e2>
						break;
					case USB_INT_EORSTI:
						UDIEN  |= (1 << EORSTE);
    1868:	80 91 e2 00 	lds	r24, 0x00E2	; 0x8000e2 <__EEPROM_REGION_LENGTH__+0x7f00e2>
    186c:	88 60       	ori	r24, 0x08	; 8
    186e:	80 93 e2 00 	sts	0x00E2, r24	; 0x8000e2 <__EEPROM_REGION_LENGTH__+0x7f00e2>
			 *  register and despite the datasheet making no mention of its requirement in host mode.
			 */
			static inline void USB_Attach(void) ATTR_ALWAYS_INLINE;
			static inline void USB_Attach(void)
			{
				UDCON  &= ~(1 << DETACH);
    1872:	80 91 e0 00 	lds	r24, 0x00E0	; 0x8000e0 <__EEPROM_REGION_LENGTH__+0x7f00e0>
    1876:	8e 7f       	andi	r24, 0xFE	; 254
    1878:	80 93 e0 00 	sts	0x00E0, r24	; 0x8000e0 <__EEPROM_REGION_LENGTH__+0x7f00e0>
    187c:	08 95       	ret

0000187e <USB_Init>:
			static inline void USB_REG_On(void)
			{
			#if defined(USB_SERIES_4_AVR) || defined(USB_SERIES_6_AVR) || defined(USB_SERIES_7_AVR)
				UHWCON |=  (1 << UVREGE);
			#else
				REGCR  &= ~(1 << REGDIS);
    187e:	e3 e6       	ldi	r30, 0x63	; 99
    1880:	f0 e0       	ldi	r31, 0x00	; 0
    1882:	80 81       	ld	r24, Z
    1884:	8e 7f       	andi	r24, 0xFE	; 254
    1886:	80 83       	st	Z, r24
		UHWCON &= ~(1 << UIDE);
		USB_CurrentMode = Mode;
	}
	#endif

	USB_IsInitialized = true;
    1888:	81 e0       	ldi	r24, 0x01	; 1
    188a:	80 93 f5 02 	sts	0x02F5, r24	; 0x8002f5 <USB_IsInitialized>

	USB_ResetInterface();
    188e:	c0 cf       	rjmp	.-128    	; 0x1810 <USB_ResetInterface>

00001890 <USB_INT_DisableAllInterrupts>:
	#if defined(USB_CAN_BE_HOST)
	UHIEN   = 0;
	#endif

	#if defined(USB_CAN_BE_DEVICE)
	UDIEN   = 0;
    1890:	10 92 e2 00 	sts	0x00E2, r1	; 0x8000e2 <__EEPROM_REGION_LENGTH__+0x7f00e2>
    1894:	08 95       	ret

00001896 <USB_INT_ClearAllInterrupts>:
	#if defined(USB_CAN_BE_HOST)
	UHINT  = 0;
	#endif

	#if defined(USB_CAN_BE_DEVICE)
	UDINT  = 0;
    1896:	10 92 e1 00 	sts	0x00E1, r1	; 0x8000e1 <__EEPROM_REGION_LENGTH__+0x7f00e1>
    189a:	08 95       	ret

0000189c <__vector_11>:
	#endif
}

ISR(USB_GEN_vect, ISR_BLOCK)
{
    189c:	1f 92       	push	r1
    189e:	0f 92       	push	r0
    18a0:	0f b6       	in	r0, 0x3f	; 63
    18a2:	0f 92       	push	r0
    18a4:	11 24       	eor	r1, r1
    18a6:	2f 93       	push	r18
    18a8:	3f 93       	push	r19
    18aa:	4f 93       	push	r20
    18ac:	5f 93       	push	r21
    18ae:	6f 93       	push	r22
    18b0:	7f 93       	push	r23
    18b2:	8f 93       	push	r24
    18b4:	9f 93       	push	r25
    18b6:	af 93       	push	r26
    18b8:	bf 93       	push	r27
    18ba:	ef 93       	push	r30
    18bc:	ff 93       	push	r31
					case USB_INT_SUSPI:
						return (UDINT  & (1 << SUSPI));
					case USB_INT_EORSTI:
						return (UDINT  & (1 << EORSTI));
					case USB_INT_SOFI:
						return (UDINT  & (1 << SOFI));
    18be:	80 91 e1 00 	lds	r24, 0x00E1	; 0x8000e1 <__EEPROM_REGION_LENGTH__+0x7f00e1>
	#if defined(USB_CAN_BE_DEVICE)
	#if !defined(NO_SOF_EVENTS)
	if (USB_INT_HasOccurred(USB_INT_SOFI) && USB_INT_IsEnabled(USB_INT_SOFI))
    18c2:	82 ff       	sbrs	r24, 2
    18c4:	0a c0       	rjmp	.+20     	; 0x18da <__vector_11+0x3e>
					case USB_INT_SUSPI:
						return (UDIEN  & (1 << SUSPE));
					case USB_INT_EORSTI:
						return (UDIEN  & (1 << EORSTE));
					case USB_INT_SOFI:
						return (UDIEN  & (1 << SOFE));
    18c6:	80 91 e2 00 	lds	r24, 0x00E2	; 0x8000e2 <__EEPROM_REGION_LENGTH__+0x7f00e2>
    18ca:	82 ff       	sbrs	r24, 2
    18cc:	06 c0       	rjmp	.+12     	; 0x18da <__vector_11+0x3e>
						break;
					case USB_INT_EORSTI:
						UDINT  &= ~(1 << EORSTI);
						break;
					case USB_INT_SOFI:
						UDINT  &= ~(1 << SOFI);
    18ce:	80 91 e1 00 	lds	r24, 0x00E1	; 0x8000e1 <__EEPROM_REGION_LENGTH__+0x7f00e1>
    18d2:	8b 7f       	andi	r24, 0xFB	; 251
    18d4:	80 93 e1 00 	sts	0x00E1, r24	; 0x8000e1 <__EEPROM_REGION_LENGTH__+0x7f00e1>
	{
		USB_INT_Clear(USB_INT_SOFI);

		EVENT_USB_Device_StartOfFrame();
    18d8:	12 d2       	rcall	.+1060   	; 0x1cfe <USB_Event_Stub>
					#endif
					#if defined(USB_CAN_BE_DEVICE)
					case USB_INT_WAKEUPI:
						return (UDINT  & (1 << WAKEUPI));
					case USB_INT_SUSPI:
						return (UDINT  & (1 << SUSPI));
    18da:	80 91 e1 00 	lds	r24, 0x00E1	; 0x8000e1 <__EEPROM_REGION_LENGTH__+0x7f00e1>
			EVENT_USB_Device_Disconnect();
		}
	}
	#endif

	if (USB_INT_HasOccurred(USB_INT_SUSPI) && USB_INT_IsEnabled(USB_INT_SUSPI))
    18de:	80 ff       	sbrs	r24, 0
    18e0:	16 c0       	rjmp	.+44     	; 0x190e <__vector_11+0x72>
					#endif
					#if defined(USB_CAN_BE_DEVICE)
					case USB_INT_WAKEUPI:
						return (UDIEN  & (1 << WAKEUPE));
					case USB_INT_SUSPI:
						return (UDIEN  & (1 << SUSPE));
    18e2:	80 91 e2 00 	lds	r24, 0x00E2	; 0x8000e2 <__EEPROM_REGION_LENGTH__+0x7f00e2>
    18e6:	80 ff       	sbrs	r24, 0
    18e8:	12 c0       	rjmp	.+36     	; 0x190e <__vector_11+0x72>
					#if defined(USB_CAN_BE_DEVICE)
					case USB_INT_WAKEUPI:
						UDIEN  &= ~(1 << WAKEUPE);
						break;
					case USB_INT_SUSPI:
						UDIEN  &= ~(1 << SUSPE);
    18ea:	80 91 e2 00 	lds	r24, 0x00E2	; 0x8000e2 <__EEPROM_REGION_LENGTH__+0x7f00e2>
    18ee:	8e 7f       	andi	r24, 0xFE	; 254
    18f0:	80 93 e2 00 	sts	0x00E2, r24	; 0x8000e2 <__EEPROM_REGION_LENGTH__+0x7f00e2>
						USBCON |= (1 << IDTE);
						break;
					#endif
					#if defined(USB_CAN_BE_DEVICE)
					case USB_INT_WAKEUPI:
						UDIEN  |= (1 << WAKEUPE);
    18f4:	80 91 e2 00 	lds	r24, 0x00E2	; 0x8000e2 <__EEPROM_REGION_LENGTH__+0x7f00e2>
    18f8:	80 61       	ori	r24, 0x10	; 16
    18fa:	80 93 e2 00 	sts	0x00E2, r24	; 0x8000e2 <__EEPROM_REGION_LENGTH__+0x7f00e2>
			#endif

			static inline void USB_CLK_Freeze(void) ATTR_ALWAYS_INLINE;
			static inline void USB_CLK_Freeze(void)
			{
				USBCON |=  (1 << FRZCLK);
    18fe:	80 91 d8 00 	lds	r24, 0x00D8	; 0x8000d8 <__EEPROM_REGION_LENGTH__+0x7f00d8>
    1902:	80 62       	ori	r24, 0x20	; 32
    1904:	80 93 d8 00 	sts	0x00D8, r24	; 0x8000d8 <__EEPROM_REGION_LENGTH__+0x7f00d8>
			}

			static inline void USB_PLL_Off(void) ATTR_ALWAYS_INLINE;
			static inline void USB_PLL_Off(void)
			{
				PLLCSR = 0;
    1908:	19 bc       	out	0x29, r1	; 41

		if (!(USB_Options & USB_OPT_MANUAL_PLL))
		  USB_PLL_Off();

		#if defined(USB_SERIES_2_AVR) && !defined(NO_LIMITED_CONTROLLER_CONNECT)
		USB_DeviceState = DEVICE_STATE_Unattached;
    190a:	1e ba       	out	0x1e, r1	; 30
		EVENT_USB_Device_Disconnect();
    190c:	f8 d1       	rcall	.+1008   	; 0x1cfe <USB_Event_Stub>
					case USB_INT_IDTI:
						return (USBINT & (1 << IDTI));
					#endif
					#if defined(USB_CAN_BE_DEVICE)
					case USB_INT_WAKEUPI:
						return (UDINT  & (1 << WAKEUPI));
    190e:	80 91 e1 00 	lds	r24, 0x00E1	; 0x8000e1 <__EEPROM_REGION_LENGTH__+0x7f00e1>
		USB_DeviceState = DEVICE_STATE_Suspended;
		EVENT_USB_Device_Suspend();
		#endif
	}

	if (USB_INT_HasOccurred(USB_INT_WAKEUPI) && USB_INT_IsEnabled(USB_INT_WAKEUPI))
    1912:	84 ff       	sbrs	r24, 4
    1914:	2d c0       	rjmp	.+90     	; 0x1970 <__vector_11+0xd4>
					case USB_INT_IDTI:
						return (USBCON & (1 << IDTE));
					#endif
					#if defined(USB_CAN_BE_DEVICE)
					case USB_INT_WAKEUPI:
						return (UDIEN  & (1 << WAKEUPE));
    1916:	80 91 e2 00 	lds	r24, 0x00E2	; 0x8000e2 <__EEPROM_REGION_LENGTH__+0x7f00e2>
    191a:	84 ff       	sbrs	r24, 4
    191c:	29 c0       	rjmp	.+82     	; 0x1970 <__vector_11+0xd4>

		/* Inline Functions: */
			static inline void USB_PLL_On(void) ATTR_ALWAYS_INLINE;
			static inline void USB_PLL_On(void)
			{
				PLLCSR = USB_PLL_PSC;
    191e:	19 bc       	out	0x29, r1	; 41
				PLLCSR = (USB_PLL_PSC | (1 << PLLE));
    1920:	82 e0       	ldi	r24, 0x02	; 2
    1922:	89 bd       	out	0x29, r24	; 41
	{
		if (!(USB_Options & USB_OPT_MANUAL_PLL))
		{
			USB_PLL_On();
			while (!(USB_PLL_IsReady()));
    1924:	09 b4       	in	r0, 0x29	; 41
    1926:	00 fe       	sbrs	r0, 0
    1928:	fd cf       	rjmp	.-6      	; 0x1924 <__vector_11+0x88>
			}

			static inline void USB_CLK_Unfreeze(void) ATTR_ALWAYS_INLINE;
			static inline void USB_CLK_Unfreeze(void)
			{
				USBCON &= ~(1 << FRZCLK);
    192a:	80 91 d8 00 	lds	r24, 0x00D8	; 0x8000d8 <__EEPROM_REGION_LENGTH__+0x7f00d8>
    192e:	8f 7d       	andi	r24, 0xDF	; 223
    1930:	80 93 d8 00 	sts	0x00D8, r24	; 0x8000d8 <__EEPROM_REGION_LENGTH__+0x7f00d8>
						USBINT &= ~(1 << IDTI);
						break;
					#endif
					#if defined(USB_CAN_BE_DEVICE)
					case USB_INT_WAKEUPI:
						UDINT  &= ~(1 << WAKEUPI);
    1934:	80 91 e1 00 	lds	r24, 0x00E1	; 0x8000e1 <__EEPROM_REGION_LENGTH__+0x7f00e1>
    1938:	8f 7e       	andi	r24, 0xEF	; 239
    193a:	80 93 e1 00 	sts	0x00E1, r24	; 0x8000e1 <__EEPROM_REGION_LENGTH__+0x7f00e1>
						USBCON &= ~(1 << IDTE);
						break;
					#endif
					#if defined(USB_CAN_BE_DEVICE)
					case USB_INT_WAKEUPI:
						UDIEN  &= ~(1 << WAKEUPE);
    193e:	80 91 e2 00 	lds	r24, 0x00E2	; 0x8000e2 <__EEPROM_REGION_LENGTH__+0x7f00e2>
    1942:	8f 7e       	andi	r24, 0xEF	; 239
    1944:	80 93 e2 00 	sts	0x00E2, r24	; 0x8000e2 <__EEPROM_REGION_LENGTH__+0x7f00e2>
					#if defined(USB_CAN_BE_DEVICE)
					case USB_INT_WAKEUPI:
						UDIEN  |= (1 << WAKEUPE);
						break;
					case USB_INT_SUSPI:
						UDIEN  |= (1 << SUSPE);
    1948:	80 91 e2 00 	lds	r24, 0x00E2	; 0x8000e2 <__EEPROM_REGION_LENGTH__+0x7f00e2>
    194c:	81 60       	ori	r24, 0x01	; 1
    194e:	80 93 e2 00 	sts	0x00E2, r24	; 0x8000e2 <__EEPROM_REGION_LENGTH__+0x7f00e2>
		USB_INT_Clear(USB_INT_WAKEUPI);

		USB_INT_Disable(USB_INT_WAKEUPI);
		USB_INT_Enable(USB_INT_SUSPI);

		if (USB_Device_ConfigurationNumber)
    1952:	80 91 f2 02 	lds	r24, 0x02F2	; 0x8002f2 <USB_Device_ConfigurationNumber>
    1956:	88 23       	and	r24, r24
    1958:	11 f0       	breq	.+4      	; 0x195e <__vector_11+0xc2>
		  USB_DeviceState = DEVICE_STATE_Configured;
    195a:	84 e0       	ldi	r24, 0x04	; 4
    195c:	07 c0       	rjmp	.+14     	; 0x196c <__vector_11+0xd0>
			}

			static inline bool USB_Device_IsAddressSet(void) ATTR_ALWAYS_INLINE ATTR_WARN_UNUSED_RESULT;
			static inline bool USB_Device_IsAddressSet(void)
			{
				return (UDADDR & (1 << ADDEN));
    195e:	80 91 e3 00 	lds	r24, 0x00E3	; 0x8000e3 <__EEPROM_REGION_LENGTH__+0x7f00e3>
		else
		  USB_DeviceState = (USB_Device_IsAddressSet()) ? DEVICE_STATE_Addressed : DEVICE_STATE_Powered;
    1962:	87 fd       	sbrc	r24, 7
    1964:	02 c0       	rjmp	.+4      	; 0x196a <__vector_11+0xce>
    1966:	81 e0       	ldi	r24, 0x01	; 1
    1968:	01 c0       	rjmp	.+2      	; 0x196c <__vector_11+0xd0>
    196a:	83 e0       	ldi	r24, 0x03	; 3
    196c:	8e bb       	out	0x1e, r24	; 30

		#if defined(USB_SERIES_2_AVR) && !defined(NO_LIMITED_CONTROLLER_CONNECT)
		EVENT_USB_Device_Connect();
    196e:	c7 d1       	rcall	.+910    	; 0x1cfe <USB_Event_Stub>
					case USB_INT_WAKEUPI:
						return (UDINT  & (1 << WAKEUPI));
					case USB_INT_SUSPI:
						return (UDINT  & (1 << SUSPI));
					case USB_INT_EORSTI:
						return (UDINT  & (1 << EORSTI));
    1970:	80 91 e1 00 	lds	r24, 0x00E1	; 0x8000e1 <__EEPROM_REGION_LENGTH__+0x7f00e1>
		#else
		EVENT_USB_Device_WakeUp();
		#endif
	}

	if (USB_INT_HasOccurred(USB_INT_EORSTI) && USB_INT_IsEnabled(USB_INT_EORSTI))
    1974:	83 ff       	sbrs	r24, 3
    1976:	26 c0       	rjmp	.+76     	; 0x19c4 <__vector_11+0x128>
					case USB_INT_WAKEUPI:
						return (UDIEN  & (1 << WAKEUPE));
					case USB_INT_SUSPI:
						return (UDIEN  & (1 << SUSPE));
					case USB_INT_EORSTI:
						return (UDIEN  & (1 << EORSTE));
    1978:	80 91 e2 00 	lds	r24, 0x00E2	; 0x8000e2 <__EEPROM_REGION_LENGTH__+0x7f00e2>
    197c:	83 ff       	sbrs	r24, 3
    197e:	22 c0       	rjmp	.+68     	; 0x19c4 <__vector_11+0x128>
						break;
					case USB_INT_SUSPI:
						UDINT  &= ~(1 << SUSPI);
						break;
					case USB_INT_EORSTI:
						UDINT  &= ~(1 << EORSTI);
    1980:	80 91 e1 00 	lds	r24, 0x00E1	; 0x8000e1 <__EEPROM_REGION_LENGTH__+0x7f00e1>
    1984:	87 7f       	andi	r24, 0xF7	; 247
    1986:	80 93 e1 00 	sts	0x00E1, r24	; 0x8000e1 <__EEPROM_REGION_LENGTH__+0x7f00e1>
	{
		USB_INT_Clear(USB_INT_EORSTI);

		USB_DeviceState                = DEVICE_STATE_Default;
    198a:	82 e0       	ldi	r24, 0x02	; 2
    198c:	8e bb       	out	0x1e, r24	; 30
		USB_Device_ConfigurationNumber = 0;
    198e:	10 92 f2 02 	sts	0x02F2, r1	; 0x8002f2 <USB_Device_ConfigurationNumber>
					#if defined(USB_CAN_BE_DEVICE)
					case USB_INT_WAKEUPI:
						UDINT  &= ~(1 << WAKEUPI);
						break;
					case USB_INT_SUSPI:
						UDINT  &= ~(1 << SUSPI);
    1992:	80 91 e1 00 	lds	r24, 0x00E1	; 0x8000e1 <__EEPROM_REGION_LENGTH__+0x7f00e1>
    1996:	8e 7f       	andi	r24, 0xFE	; 254
    1998:	80 93 e1 00 	sts	0x00E1, r24	; 0x8000e1 <__EEPROM_REGION_LENGTH__+0x7f00e1>
					#if defined(USB_CAN_BE_DEVICE)
					case USB_INT_WAKEUPI:
						UDIEN  &= ~(1 << WAKEUPE);
						break;
					case USB_INT_SUSPI:
						UDIEN  &= ~(1 << SUSPE);
    199c:	80 91 e2 00 	lds	r24, 0x00E2	; 0x8000e2 <__EEPROM_REGION_LENGTH__+0x7f00e2>
    19a0:	8e 7f       	andi	r24, 0xFE	; 254
    19a2:	80 93 e2 00 	sts	0x00E2, r24	; 0x8000e2 <__EEPROM_REGION_LENGTH__+0x7f00e2>
						USBCON |= (1 << IDTE);
						break;
					#endif
					#if defined(USB_CAN_BE_DEVICE)
					case USB_INT_WAKEUPI:
						UDIEN  |= (1 << WAKEUPE);
    19a6:	80 91 e2 00 	lds	r24, 0x00E2	; 0x8000e2 <__EEPROM_REGION_LENGTH__+0x7f00e2>
    19aa:	80 61       	ori	r24, 0x10	; 16
    19ac:	80 93 e2 00 	sts	0x00E2, r24	; 0x8000e2 <__EEPROM_REGION_LENGTH__+0x7f00e2>
				uint8_t Number = (Address & ENDPOINT_EPNUM_MASK);

				if (Number >= ENDPOINT_TOTAL_ENDPOINTS)
				  return false;

				return Endpoint_ConfigureEndpoint_Prv(Number,
    19b0:	42 e0       	ldi	r20, 0x02	; 2
    19b2:	60 e0       	ldi	r22, 0x00	; 0
    19b4:	80 e0       	ldi	r24, 0x00	; 0
    19b6:	60 de       	rcall	.-832    	; 0x1678 <Endpoint_ConfigureEndpoint_Prv>
						break;
					case USB_INT_SOFI:
						UDIEN  |= (1 << SOFE);
						break;
					case USB_INT_RXSTPI:
						UEIENX |= (1 << RXSTPE);
    19b8:	80 91 f0 00 	lds	r24, 0x00F0	; 0x8000f0 <__EEPROM_REGION_LENGTH__+0x7f00f0>
    19bc:	88 60       	ori	r24, 0x08	; 8
    19be:	80 93 f0 00 	sts	0x00F0, r24	; 0x8000f0 <__EEPROM_REGION_LENGTH__+0x7f00f0>

		#if defined(INTERRUPT_CONTROL_ENDPOINT)
		USB_INT_Enable(USB_INT_RXSTPI);
		#endif

		EVENT_USB_Device_Reset();
    19c2:	9d d1       	rcall	.+826    	; 0x1cfe <USB_Event_Stub>
		USB_ResetInterface();

		EVENT_USB_UIDChange();
	}
	#endif
}
    19c4:	ff 91       	pop	r31
    19c6:	ef 91       	pop	r30
    19c8:	bf 91       	pop	r27
    19ca:	af 91       	pop	r26
    19cc:	9f 91       	pop	r25
    19ce:	8f 91       	pop	r24
    19d0:	7f 91       	pop	r23
    19d2:	6f 91       	pop	r22
    19d4:	5f 91       	pop	r21
    19d6:	4f 91       	pop	r20
    19d8:	3f 91       	pop	r19
    19da:	2f 91       	pop	r18
    19dc:	0f 90       	pop	r0
    19de:	0f be       	out	0x3f, r0	; 63
    19e0:	0f 90       	pop	r0
    19e2:	1f 90       	pop	r1
    19e4:	18 95       	reti

000019e6 <__vector_12>:

#if defined(INTERRUPT_CONTROL_ENDPOINT) && defined(USB_CAN_BE_DEVICE)
ISR(USB_COM_vect, ISR_BLOCK)
{
    19e6:	1f 92       	push	r1
    19e8:	0f 92       	push	r0
    19ea:	0f b6       	in	r0, 0x3f	; 63
    19ec:	0f 92       	push	r0
    19ee:	11 24       	eor	r1, r1
    19f0:	2f 93       	push	r18
    19f2:	3f 93       	push	r19
    19f4:	4f 93       	push	r20
    19f6:	5f 93       	push	r21
    19f8:	6f 93       	push	r22
    19fa:	7f 93       	push	r23
    19fc:	8f 93       	push	r24
    19fe:	9f 93       	push	r25
    1a00:	af 93       	push	r26
    1a02:	bf 93       	push	r27
    1a04:	cf 93       	push	r28
    1a06:	df 93       	push	r29
    1a08:	ef 93       	push	r30
    1a0a:	ff 93       	push	r31
			 */
			static inline uint8_t Endpoint_GetCurrentEndpoint(void) ATTR_WARN_UNUSED_RESULT ATTR_ALWAYS_INLINE;
			static inline uint8_t Endpoint_GetCurrentEndpoint(void)
			{
				#if !defined(CONTROL_ONLY_DEVICE)
					return ((UENUM & ENDPOINT_EPNUM_MASK) | Endpoint_GetEndpointDirection());
    1a0c:	c0 91 e9 00 	lds	r28, 0x00E9	; 0x8000e9 <__EEPROM_REGION_LENGTH__+0x7f00e9>
    1a10:	cf 70       	andi	r28, 0x0F	; 15
			 *  \return The currently selected endpoint's direction, as a \c ENDPOINT_DIR_* mask.
			 */
			static inline uint8_t Endpoint_GetEndpointDirection(void) ATTR_WARN_UNUSED_RESULT ATTR_ALWAYS_INLINE;
			static inline uint8_t Endpoint_GetEndpointDirection(void)
			{
				return (UECFG0X & (1 << EPDIR)) ? ENDPOINT_DIR_IN : ENDPOINT_DIR_OUT;
    1a12:	80 91 ec 00 	lds	r24, 0x00EC	; 0x8000ec <__EEPROM_REGION_LENGTH__+0x7f00ec>
    1a16:	d8 2f       	mov	r29, r24
    1a18:	d1 70       	andi	r29, 0x01	; 1
    1a1a:	80 fd       	sbrc	r24, 0
    1a1c:	d0 e8       	ldi	r29, 0x80	; 128
			 */
			static inline void Endpoint_SelectEndpoint(const uint8_t Address) ATTR_ALWAYS_INLINE;
			static inline void Endpoint_SelectEndpoint(const uint8_t Address)
			{
				#if !defined(CONTROL_ONLY_DEVICE)
					UENUM = (Address & ENDPOINT_EPNUM_MASK);
    1a1e:	10 92 e9 00 	sts	0x00E9, r1	; 0x8000e9 <__EEPROM_REGION_LENGTH__+0x7f00e9>
						break;
					case USB_INT_SOFI:
						UDIEN  &= ~(1 << SOFE);
						break;
					case USB_INT_RXSTPI:
						UEIENX &= ~(1 << RXSTPE);
    1a22:	80 91 f0 00 	lds	r24, 0x00F0	; 0x8000f0 <__EEPROM_REGION_LENGTH__+0x7f00f0>
    1a26:	87 7f       	andi	r24, 0xF7	; 247
    1a28:	80 93 f0 00 	sts	0x00F0, r24	; 0x8000f0 <__EEPROM_REGION_LENGTH__+0x7f00f0>
			static inline void GlobalInterruptEnable(void)
			{
				GCC_MEMORY_BARRIER();

				#if (ARCH == ARCH_AVR8)
				sei();
    1a2c:	78 94       	sei
	Endpoint_SelectEndpoint(ENDPOINT_CONTROLEP);
	USB_INT_Disable(USB_INT_RXSTPI);

	GlobalInterruptEnable();

	USB_Device_ProcessControlRequest();
    1a2e:	1e d0       	rcall	.+60     	; 0x1a6c <USB_Device_ProcessControlRequest>
    1a30:	10 92 e9 00 	sts	0x00E9, r1	; 0x8000e9 <__EEPROM_REGION_LENGTH__+0x7f00e9>
						break;
					case USB_INT_SOFI:
						UDIEN  |= (1 << SOFE);
						break;
					case USB_INT_RXSTPI:
						UEIENX |= (1 << RXSTPE);
    1a34:	80 91 f0 00 	lds	r24, 0x00F0	; 0x8000f0 <__EEPROM_REGION_LENGTH__+0x7f00f0>
    1a38:	88 60       	ori	r24, 0x08	; 8
    1a3a:	80 93 f0 00 	sts	0x00F0, r24	; 0x8000f0 <__EEPROM_REGION_LENGTH__+0x7f00f0>
			 */
			static inline uint8_t Endpoint_GetCurrentEndpoint(void) ATTR_WARN_UNUSED_RESULT ATTR_ALWAYS_INLINE;
			static inline uint8_t Endpoint_GetCurrentEndpoint(void)
			{
				#if !defined(CONTROL_ONLY_DEVICE)
					return ((UENUM & ENDPOINT_EPNUM_MASK) | Endpoint_GetEndpointDirection());
    1a3e:	cd 2b       	or	r28, r29
			 */
			static inline void Endpoint_SelectEndpoint(const uint8_t Address) ATTR_ALWAYS_INLINE;
			static inline void Endpoint_SelectEndpoint(const uint8_t Address)
			{
				#if !defined(CONTROL_ONLY_DEVICE)
					UENUM = (Address & ENDPOINT_EPNUM_MASK);
    1a40:	cf 70       	andi	r28, 0x0F	; 15
    1a42:	c0 93 e9 00 	sts	0x00E9, r28	; 0x8000e9 <__EEPROM_REGION_LENGTH__+0x7f00e9>

	Endpoint_SelectEndpoint(ENDPOINT_CONTROLEP);
	USB_INT_Enable(USB_INT_RXSTPI);
	Endpoint_SelectEndpoint(PrevSelectedEndpoint);
}
    1a46:	ff 91       	pop	r31
    1a48:	ef 91       	pop	r30
    1a4a:	df 91       	pop	r29
    1a4c:	cf 91       	pop	r28
    1a4e:	bf 91       	pop	r27
    1a50:	af 91       	pop	r26
    1a52:	9f 91       	pop	r25
    1a54:	8f 91       	pop	r24
    1a56:	7f 91       	pop	r23
    1a58:	6f 91       	pop	r22
    1a5a:	5f 91       	pop	r21
    1a5c:	4f 91       	pop	r20
    1a5e:	3f 91       	pop	r19
    1a60:	2f 91       	pop	r18
    1a62:	0f 90       	pop	r0
    1a64:	0f be       	out	0x3f, r0	; 63
    1a66:	0f 90       	pop	r0
    1a68:	1f 90       	pop	r1
    1a6a:	18 95       	reti

00001a6c <USB_Device_ProcessControlRequest>:
#if !defined(NO_DEVICE_REMOTE_WAKEUP)
bool    USB_Device_RemoteWakeupEnabled;
#endif

void USB_Device_ProcessControlRequest(void)
{
    1a6c:	1f 93       	push	r17
    1a6e:	cf 93       	push	r28
    1a70:	df 93       	push	r29
    1a72:	cd b7       	in	r28, 0x3d	; 61
    1a74:	de b7       	in	r29, 0x3e	; 62
    1a76:	aa 97       	sbiw	r28, 0x2a	; 42
    1a78:	0f b6       	in	r0, 0x3f	; 63
    1a7a:	f8 94       	cli
    1a7c:	de bf       	out	0x3e, r29	; 62
    1a7e:	0f be       	out	0x3f, r0	; 63
    1a80:	cd bf       	out	0x3d, r28	; 61
    1a82:	e6 ef       	ldi	r30, 0xF6	; 246
    1a84:	f2 e0       	ldi	r31, 0x02	; 2
    1a86:	88 e0       	ldi	r24, 0x08	; 8
    1a88:	8e 0f       	add	r24, r30
			 *  \return Next byte in the currently selected endpoint's FIFO buffer.
			 */
			static inline uint8_t Endpoint_Read_8(void) ATTR_WARN_UNUSED_RESULT ATTR_ALWAYS_INLINE;
			static inline uint8_t Endpoint_Read_8(void)
			{
				return UEDATX;
    1a8a:	90 91 f1 00 	lds	r25, 0x00F1	; 0x8000f1 <__EEPROM_REGION_LENGTH__+0x7f00f1>
	USB_ControlRequest.wLength       = Endpoint_Read_16_LE();
	#else
	uint8_t* RequestHeader = (uint8_t*)&USB_ControlRequest;

	for (uint8_t RequestHeaderByte = 0; RequestHeaderByte < sizeof(USB_Request_Header_t); RequestHeaderByte++)
	  *(RequestHeader++) = Endpoint_Read_8();
    1a8e:	91 93       	st	Z+, r25
	USB_ControlRequest.wIndex        = Endpoint_Read_16_LE();
	USB_ControlRequest.wLength       = Endpoint_Read_16_LE();
	#else
	uint8_t* RequestHeader = (uint8_t*)&USB_ControlRequest;

	for (uint8_t RequestHeaderByte = 0; RequestHeaderByte < sizeof(USB_Request_Header_t); RequestHeaderByte++)
    1a90:	8e 13       	cpse	r24, r30
    1a92:	fb cf       	rjmp	.-10     	; 0x1a8a <USB_Device_ProcessControlRequest+0x1e>
	  *(RequestHeader++) = Endpoint_Read_8();
	#endif

	EVENT_USB_Device_ControlRequest();
    1a94:	0e 94 52 02 	call	0x4a4	; 0x4a4 <EVENT_USB_Device_ControlRequest>
			 *  \return Boolean \c true if the selected endpoint has received a SETUP packet, \c false otherwise.
			 */
			static inline bool Endpoint_IsSETUPReceived(void) ATTR_WARN_UNUSED_RESULT ATTR_ALWAYS_INLINE;
			static inline bool Endpoint_IsSETUPReceived(void)
			{
				return ((UEINTX & (1 << RXSTPI)) ? true : false);
    1a98:	80 91 e8 00 	lds	r24, 0x00E8	; 0x8000e8 <__EEPROM_REGION_LENGTH__+0x7f00e8>

	if (Endpoint_IsSETUPReceived())
    1a9c:	83 ff       	sbrs	r24, 3
    1a9e:	17 c1       	rjmp	.+558    	; 0x1cce <USB_Device_ProcessControlRequest+0x262>
	{
		uint8_t bmRequestType = USB_ControlRequest.bmRequestType;
    1aa0:	80 91 f6 02 	lds	r24, 0x02F6	; 0x8002f6 <USB_ControlRequest>

		switch (USB_ControlRequest.bRequest)
    1aa4:	90 91 f7 02 	lds	r25, 0x02F7	; 0x8002f7 <USB_ControlRequest+0x1>
    1aa8:	49 2f       	mov	r20, r25
    1aaa:	50 e0       	ldi	r21, 0x00	; 0
    1aac:	4a 30       	cpi	r20, 0x0A	; 10
    1aae:	51 05       	cpc	r21, r1
    1ab0:	08 f0       	brcs	.+2      	; 0x1ab4 <USB_Device_ProcessControlRequest+0x48>
    1ab2:	0d c1       	rjmp	.+538    	; 0x1cce <USB_Device_ProcessControlRequest+0x262>
    1ab4:	fa 01       	movw	r30, r20
    1ab6:	ed 54       	subi	r30, 0x4D	; 77
    1ab8:	ff 4f       	sbci	r31, 0xFF	; 255
    1aba:	70 c1       	rjmp	.+736    	; 0x1d9c <__tablejump2__>
		{
			case REQ_GetStatus:
				if ((bmRequestType == (REQDIR_DEVICETOHOST | REQTYPE_STANDARD | REQREC_DEVICE)) ||
    1abc:	80 38       	cpi	r24, 0x80	; 128
    1abe:	81 f0       	breq	.+32     	; 0x1ae0 <USB_Device_ProcessControlRequest+0x74>
    1ac0:	82 38       	cpi	r24, 0x82	; 130
    1ac2:	09 f0       	breq	.+2      	; 0x1ac6 <USB_Device_ProcessControlRequest+0x5a>
    1ac4:	04 c1       	rjmp	.+520    	; 0x1cce <USB_Device_ProcessControlRequest+0x262>
			 */
			static inline void Endpoint_SelectEndpoint(const uint8_t Address) ATTR_ALWAYS_INLINE;
			static inline void Endpoint_SelectEndpoint(const uint8_t Address)
			{
				#if !defined(CONTROL_ONLY_DEVICE)
					UENUM = (Address & ENDPOINT_EPNUM_MASK);
    1ac6:	80 91 fa 02 	lds	r24, 0x02FA	; 0x8002fa <USB_ControlRequest+0x4>
    1aca:	8f 70       	andi	r24, 0x0F	; 15
    1acc:	80 93 e9 00 	sts	0x00E9, r24	; 0x8000e9 <__EEPROM_REGION_LENGTH__+0x7f00e9>
			 *  \return Boolean \c true if the currently selected endpoint is stalled, \c false otherwise.
			 */
			static inline bool Endpoint_IsStalled(void) ATTR_WARN_UNUSED_RESULT ATTR_ALWAYS_INLINE;
			static inline bool Endpoint_IsStalled(void)
			{
				return ((UECONX & (1 << STALLRQ)) ? true : false);
    1ad0:	80 91 eb 00 	lds	r24, 0x00EB	; 0x8000eb <__EEPROM_REGION_LENGTH__+0x7f00eb>
    1ad4:	85 fb       	bst	r24, 5
    1ad6:	88 27       	eor	r24, r24
    1ad8:	80 f9       	bld	r24, 0
			 */
			static inline void Endpoint_SelectEndpoint(const uint8_t Address) ATTR_ALWAYS_INLINE;
			static inline void Endpoint_SelectEndpoint(const uint8_t Address)
			{
				#if !defined(CONTROL_ONLY_DEVICE)
					UENUM = (Address & ENDPOINT_EPNUM_MASK);
    1ada:	10 92 e9 00 	sts	0x00E9, r1	; 0x8000e9 <__EEPROM_REGION_LENGTH__+0x7f00e9>
    1ade:	06 c0       	rjmp	.+12     	; 0x1aec <USB_Device_ProcessControlRequest+0x80>
	Endpoint_ClearOUT();
}

static void USB_Device_GetStatus(void)
{
	uint8_t CurrentStatus = 0;
    1ae0:	80 91 f3 02 	lds	r24, 0x02F3	; 0x8002f3 <USB_Device_CurrentlySelfPowered>
			if (USB_Device_CurrentlySelfPowered)
			  CurrentStatus |= FEATURE_SELFPOWERED_ENABLED;
			#endif

			#if !defined(NO_DEVICE_REMOTE_WAKEUP)
			if (USB_Device_RemoteWakeupEnabled)
    1ae4:	90 91 f4 02 	lds	r25, 0x02F4	; 0x8002f4 <USB_Device_RemoteWakeupEnabled>
    1ae8:	91 11       	cpse	r25, r1
			  CurrentStatus |= FEATURE_REMOTE_WAKEUP_ENABLED;
    1aea:	82 60       	ori	r24, 0x02	; 2
			 *  \note This is not applicable for non CONTROL type endpoints.
			 */
			static inline void Endpoint_ClearSETUP(void) ATTR_ALWAYS_INLINE;
			static inline void Endpoint_ClearSETUP(void)
			{
				UEINTX &= ~(1 << RXSTPI);
    1aec:	90 91 e8 00 	lds	r25, 0x00E8	; 0x8000e8 <__EEPROM_REGION_LENGTH__+0x7f00e8>
    1af0:	97 7f       	andi	r25, 0xF7	; 247
    1af2:	90 93 e8 00 	sts	0x00E8, r25	; 0x8000e8 <__EEPROM_REGION_LENGTH__+0x7f00e8>
			 *  \param[in] Data  Data to write to the currently selected endpoint's FIFO buffer.
			 */
			static inline void Endpoint_Write_16_LE(const uint16_t Data) ATTR_ALWAYS_INLINE;
			static inline void Endpoint_Write_16_LE(const uint16_t Data)
			{
				UEDATX = (Data & 0xFF);
    1af6:	80 93 f1 00 	sts	0x00F1, r24	; 0x8000f1 <__EEPROM_REGION_LENGTH__+0x7f00f1>
				UEDATX = (Data >> 8);
    1afa:	10 92 f1 00 	sts	0x00F1, r1	; 0x8000f1 <__EEPROM_REGION_LENGTH__+0x7f00f1>
    1afe:	c4 c0       	rjmp	.+392    	; 0x1c88 <USB_Device_ProcessControlRequest+0x21c>
				}

				break;
			case REQ_ClearFeature:
			case REQ_SetFeature:
				if ((bmRequestType == (REQDIR_HOSTTODEVICE | REQTYPE_STANDARD | REQREC_DEVICE)) ||
    1b00:	28 2f       	mov	r18, r24
    1b02:	2d 7f       	andi	r18, 0xFD	; 253
    1b04:	09 f0       	breq	.+2      	; 0x1b08 <USB_Device_ProcessControlRequest+0x9c>
    1b06:	e3 c0       	rjmp	.+454    	; 0x1cce <USB_Device_ProcessControlRequest+0x262>
	Endpoint_ClearStatusStage();
}

static void USB_Device_ClearSetFeature(void)
{
	switch (USB_ControlRequest.bmRequestType & CONTROL_REQTYPE_RECIPIENT)
    1b08:	88 23       	and	r24, r24
    1b0a:	19 f0       	breq	.+6      	; 0x1b12 <USB_Device_ProcessControlRequest+0xa6>
    1b0c:	82 30       	cpi	r24, 0x02	; 2
    1b0e:	61 f0       	breq	.+24     	; 0x1b28 <USB_Device_ProcessControlRequest+0xbc>
    1b10:	de c0       	rjmp	.+444    	; 0x1cce <USB_Device_ProcessControlRequest+0x262>
	{
		#if !defined(NO_DEVICE_REMOTE_WAKEUP)
		case REQREC_DEVICE:
			if ((uint8_t)USB_ControlRequest.wValue == FEATURE_SEL_DeviceRemoteWakeup)
    1b12:	80 91 f8 02 	lds	r24, 0x02F8	; 0x8002f8 <USB_ControlRequest+0x2>
    1b16:	81 30       	cpi	r24, 0x01	; 1
    1b18:	09 f0       	breq	.+2      	; 0x1b1c <USB_Device_ProcessControlRequest+0xb0>
    1b1a:	d9 c0       	rjmp	.+434    	; 0x1cce <USB_Device_ProcessControlRequest+0x262>
			  USB_Device_RemoteWakeupEnabled = (USB_ControlRequest.bRequest == REQ_SetFeature);
    1b1c:	93 30       	cpi	r25, 0x03	; 3
    1b1e:	09 f0       	breq	.+2      	; 0x1b22 <USB_Device_ProcessControlRequest+0xb6>
    1b20:	80 e0       	ldi	r24, 0x00	; 0
    1b22:	80 93 f4 02 	sts	0x02F4, r24	; 0x8002f4 <USB_Device_RemoteWakeupEnabled>
    1b26:	2b c0       	rjmp	.+86     	; 0x1b7e <USB_Device_ProcessControlRequest+0x112>

			break;
		#endif
		#if !defined(CONTROL_ONLY_DEVICE)
		case REQREC_ENDPOINT:
			if ((uint8_t)USB_ControlRequest.wValue == FEATURE_SEL_EndpointHalt)
    1b28:	80 91 f8 02 	lds	r24, 0x02F8	; 0x8002f8 <USB_ControlRequest+0x2>
    1b2c:	81 11       	cpse	r24, r1
    1b2e:	27 c0       	rjmp	.+78     	; 0x1b7e <USB_Device_ProcessControlRequest+0x112>
			{
				uint8_t EndpointIndex = ((uint8_t)USB_ControlRequest.wIndex & ENDPOINT_EPNUM_MASK);
    1b30:	80 91 fa 02 	lds	r24, 0x02FA	; 0x8002fa <USB_ControlRequest+0x4>
    1b34:	8f 70       	andi	r24, 0x0F	; 15

				if (EndpointIndex == ENDPOINT_CONTROLEP)
    1b36:	09 f4       	brne	.+2      	; 0x1b3a <USB_Device_ProcessControlRequest+0xce>
    1b38:	ca c0       	rjmp	.+404    	; 0x1cce <USB_Device_ProcessControlRequest+0x262>
			 */
			static inline void Endpoint_SelectEndpoint(const uint8_t Address) ATTR_ALWAYS_INLINE;
			static inline void Endpoint_SelectEndpoint(const uint8_t Address)
			{
				#if !defined(CONTROL_ONLY_DEVICE)
					UENUM = (Address & ENDPOINT_EPNUM_MASK);
    1b3a:	80 93 e9 00 	sts	0x00E9, r24	; 0x8000e9 <__EEPROM_REGION_LENGTH__+0x7f00e9>
			 * \return Boolean \c true if the currently selected endpoint is enabled, \c false otherwise.
			 */
			static inline bool Endpoint_IsEnabled(void) ATTR_WARN_UNUSED_RESULT ATTR_ALWAYS_INLINE;
			static inline bool Endpoint_IsEnabled(void)
			{
				return ((UECONX & (1 << EPEN)) ? true : false);
    1b3e:	20 91 eb 00 	lds	r18, 0x00EB	; 0x8000eb <__EEPROM_REGION_LENGTH__+0x7f00eb>
				  return;

				Endpoint_SelectEndpoint(EndpointIndex);

				if (Endpoint_IsEnabled())
    1b42:	20 ff       	sbrs	r18, 0
    1b44:	1c c0       	rjmp	.+56     	; 0x1b7e <USB_Device_ProcessControlRequest+0x112>
				{
					if (USB_ControlRequest.bRequest == REQ_SetFeature)
    1b46:	93 30       	cpi	r25, 0x03	; 3
    1b48:	21 f4       	brne	.+8      	; 0x1b52 <USB_Device_ProcessControlRequest+0xe6>
			 *  \ingroup Group_EndpointPacketManagement_AVR8
			 */
			static inline void Endpoint_StallTransaction(void) ATTR_ALWAYS_INLINE;
			static inline void Endpoint_StallTransaction(void)
			{
				UECONX |= (1 << STALLRQ);
    1b4a:	80 91 eb 00 	lds	r24, 0x00EB	; 0x8000eb <__EEPROM_REGION_LENGTH__+0x7f00eb>
    1b4e:	80 62       	ori	r24, 0x20	; 32
    1b50:	14 c0       	rjmp	.+40     	; 0x1b7a <USB_Device_ProcessControlRequest+0x10e>
			 *  \ingroup Group_EndpointPacketManagement_AVR8
			 */
			static inline void Endpoint_ClearStall(void) ATTR_ALWAYS_INLINE;
			static inline void Endpoint_ClearStall(void)
			{
				UECONX |= (1 << STALLRQC);
    1b52:	90 91 eb 00 	lds	r25, 0x00EB	; 0x8000eb <__EEPROM_REGION_LENGTH__+0x7f00eb>
    1b56:	90 61       	ori	r25, 0x10	; 16
    1b58:	90 93 eb 00 	sts	0x00EB, r25	; 0x8000eb <__EEPROM_REGION_LENGTH__+0x7f00eb>
			 *  \param[in] Address  Endpoint address whose FIFO buffers are to be reset.
			 */
			static inline void Endpoint_ResetEndpoint(const uint8_t Address) ATTR_ALWAYS_INLINE;
			static inline void Endpoint_ResetEndpoint(const uint8_t Address)
			{
				UERST = (1 << (Address & ENDPOINT_EPNUM_MASK));
    1b5c:	21 e0       	ldi	r18, 0x01	; 1
    1b5e:	30 e0       	ldi	r19, 0x00	; 0
    1b60:	a9 01       	movw	r20, r18
    1b62:	02 c0       	rjmp	.+4      	; 0x1b68 <USB_Device_ProcessControlRequest+0xfc>
    1b64:	44 0f       	add	r20, r20
    1b66:	55 1f       	adc	r21, r21
    1b68:	8a 95       	dec	r24
    1b6a:	e2 f7       	brpl	.-8      	; 0x1b64 <USB_Device_ProcessControlRequest+0xf8>
    1b6c:	40 93 ea 00 	sts	0x00EA, r20	; 0x8000ea <__EEPROM_REGION_LENGTH__+0x7f00ea>
				UERST = 0;
    1b70:	10 92 ea 00 	sts	0x00EA, r1	; 0x8000ea <__EEPROM_REGION_LENGTH__+0x7f00ea>

			/** Resets the data toggle of the currently selected endpoint. */
			static inline void Endpoint_ResetDataToggle(void) ATTR_ALWAYS_INLINE;
			static inline void Endpoint_ResetDataToggle(void)
			{
				UECONX |= (1 << RSTDT);
    1b74:	80 91 eb 00 	lds	r24, 0x00EB	; 0x8000eb <__EEPROM_REGION_LENGTH__+0x7f00eb>
    1b78:	88 60       	ori	r24, 0x08	; 8
    1b7a:	80 93 eb 00 	sts	0x00EB, r24	; 0x8000eb <__EEPROM_REGION_LENGTH__+0x7f00eb>
			 */
			static inline void Endpoint_SelectEndpoint(const uint8_t Address) ATTR_ALWAYS_INLINE;
			static inline void Endpoint_SelectEndpoint(const uint8_t Address)
			{
				#if !defined(CONTROL_ONLY_DEVICE)
					UENUM = (Address & ENDPOINT_EPNUM_MASK);
    1b7e:	10 92 e9 00 	sts	0x00E9, r1	; 0x8000e9 <__EEPROM_REGION_LENGTH__+0x7f00e9>
			 *  \note This is not applicable for non CONTROL type endpoints.
			 */
			static inline void Endpoint_ClearSETUP(void) ATTR_ALWAYS_INLINE;
			static inline void Endpoint_ClearSETUP(void)
			{
				UEINTX &= ~(1 << RXSTPI);
    1b82:	80 91 e8 00 	lds	r24, 0x00E8	; 0x8000e8 <__EEPROM_REGION_LENGTH__+0x7f00e8>
    1b86:	87 7f       	andi	r24, 0xF7	; 247
    1b88:	82 c0       	rjmp	.+260    	; 0x1c8e <USB_Device_ProcessControlRequest+0x222>
					USB_Device_ClearSetFeature();
				}

				break;
			case REQ_SetAddress:
				if (bmRequestType == (REQDIR_HOSTTODEVICE | REQTYPE_STANDARD | REQREC_DEVICE))
    1b8a:	81 11       	cpse	r24, r1
    1b8c:	a0 c0       	rjmp	.+320    	; 0x1cce <USB_Device_ProcessControlRequest+0x262>
	}
}

static void USB_Device_SetAddress(void)
{
	uint8_t DeviceAddress = (USB_ControlRequest.wValue & 0x7F);
    1b8e:	10 91 f8 02 	lds	r17, 0x02F8	; 0x8002f8 <USB_ControlRequest+0x2>
    1b92:	1f 77       	andi	r17, 0x7F	; 127
			#endif

			static inline void USB_Device_SetDeviceAddress(const uint8_t Address) ATTR_ALWAYS_INLINE;
			static inline void USB_Device_SetDeviceAddress(const uint8_t Address)
			{
				UDADDR = (UDADDR & (1 << ADDEN)) | (Address & 0x7F);
    1b94:	80 91 e3 00 	lds	r24, 0x00E3	; 0x8000e3 <__EEPROM_REGION_LENGTH__+0x7f00e3>
    1b98:	80 78       	andi	r24, 0x80	; 128
    1b9a:	81 2b       	or	r24, r17
    1b9c:	80 93 e3 00 	sts	0x00E3, r24	; 0x8000e3 <__EEPROM_REGION_LENGTH__+0x7f00e3>
    1ba0:	80 91 e8 00 	lds	r24, 0x00E8	; 0x8000e8 <__EEPROM_REGION_LENGTH__+0x7f00e8>
    1ba4:	87 7f       	andi	r24, 0xF7	; 247
    1ba6:	80 93 e8 00 	sts	0x00E8, r24	; 0x8000e8 <__EEPROM_REGION_LENGTH__+0x7f00e8>

	USB_Device_SetDeviceAddress(DeviceAddress);

	Endpoint_ClearSETUP();

	Endpoint_ClearStatusStage();
    1baa:	e4 dd       	rcall	.-1080   	; 0x1774 <Endpoint_ClearStatusStage>
			 *  \return Boolean \c true if the current endpoint is ready for an IN packet, \c false otherwise.
			 */
			static inline bool Endpoint_IsINReady(void) ATTR_WARN_UNUSED_RESULT ATTR_ALWAYS_INLINE;
			static inline bool Endpoint_IsINReady(void)
			{
				return ((UEINTX & (1 << TXINI)) ? true : false);
    1bac:	80 91 e8 00 	lds	r24, 0x00E8	; 0x8000e8 <__EEPROM_REGION_LENGTH__+0x7f00e8>

	while (!(Endpoint_IsINReady()));
    1bb0:	80 ff       	sbrs	r24, 0
    1bb2:	fc cf       	rjmp	.-8      	; 0x1bac <USB_Device_ProcessControlRequest+0x140>
			static inline void USB_Device_EnableDeviceAddress(const uint8_t Address) ATTR_ALWAYS_INLINE;
			static inline void USB_Device_EnableDeviceAddress(const uint8_t Address)
			{
				(void)Address;

				UDADDR |= (1 << ADDEN);
    1bb4:	80 91 e3 00 	lds	r24, 0x00E3	; 0x8000e3 <__EEPROM_REGION_LENGTH__+0x7f00e3>
    1bb8:	80 68       	ori	r24, 0x80	; 128
    1bba:	80 93 e3 00 	sts	0x00E3, r24	; 0x8000e3 <__EEPROM_REGION_LENGTH__+0x7f00e3>

	USB_Device_EnableDeviceAddress(DeviceAddress);

	USB_DeviceState = (DeviceAddress) ? DEVICE_STATE_Addressed : DEVICE_STATE_Default;
    1bbe:	11 11       	cpse	r17, r1
    1bc0:	02 c0       	rjmp	.+4      	; 0x1bc6 <USB_Device_ProcessControlRequest+0x15a>
    1bc2:	82 e0       	ldi	r24, 0x02	; 2
    1bc4:	01 c0       	rjmp	.+2      	; 0x1bc8 <USB_Device_ProcessControlRequest+0x15c>
    1bc6:	83 e0       	ldi	r24, 0x03	; 3
    1bc8:	8e bb       	out	0x1e, r24	; 30
    1bca:	81 c0       	rjmp	.+258    	; 0x1cce <USB_Device_ProcessControlRequest+0x262>
				if (bmRequestType == (REQDIR_HOSTTODEVICE | REQTYPE_STANDARD | REQREC_DEVICE))
				  USB_Device_SetAddress();

				break;
			case REQ_GetDescriptor:
				if ((bmRequestType == (REQDIR_DEVICETOHOST | REQTYPE_STANDARD | REQREC_DEVICE)) ||
    1bcc:	80 58       	subi	r24, 0x80	; 128
    1bce:	82 30       	cpi	r24, 0x02	; 2
    1bd0:	08 f0       	brcs	.+2      	; 0x1bd4 <USB_Device_ProcessControlRequest+0x168>
    1bd2:	7d c0       	rjmp	.+250    	; 0x1cce <USB_Device_ProcessControlRequest+0x262>
	    !(defined(USE_FLASH_DESCRIPTORS) || defined(USE_EEPROM_DESCRIPTORS) || defined(USE_RAM_DESCRIPTORS))
	uint8_t DescriptorAddressSpace;
	#endif

	#if !defined(NO_INTERNAL_SERIAL) && (USE_INTERNAL_SERIAL != NO_DESCRIPTOR)
	if (USB_ControlRequest.wValue == ((DTYPE_String << 8) | USE_INTERNAL_SERIAL))
    1bd4:	80 91 f8 02 	lds	r24, 0x02F8	; 0x8002f8 <USB_ControlRequest+0x2>
    1bd8:	90 91 f9 02 	lds	r25, 0x02F9	; 0x8002f9 <USB_ControlRequest+0x3>
    1bdc:	8c 3d       	cpi	r24, 0xDC	; 220
    1bde:	53 e0       	ldi	r21, 0x03	; 3
    1be0:	95 07       	cpc	r25, r21
    1be2:	71 f5       	brne	.+92     	; 0x1c40 <USB_Device_ProcessControlRequest+0x1d4>
	{
		USB_Descriptor_Header_t Header;
		uint16_t                UnicodeString[INTERNAL_SERIAL_LENGTH_BITS / 4];
	} SignatureDescriptor;

	SignatureDescriptor.Header.Type = DTYPE_String;
    1be4:	83 e0       	ldi	r24, 0x03	; 3
    1be6:	8a 83       	std	Y+2, r24	; 0x02
	SignatureDescriptor.Header.Size = USB_STRING_LEN(INTERNAL_SERIAL_LENGTH_BITS / 4);
    1be8:	8a e2       	ldi	r24, 0x2A	; 42
    1bea:	89 83       	std	Y+1, r24	; 0x01
			static inline uint_reg_t GetGlobalInterruptMask(void)
			{
				GCC_MEMORY_BARRIER();

				#if (ARCH == ARCH_AVR8)
				return SREG;
    1bec:	4f b7       	in	r20, 0x3f	; 63
			static inline void GlobalInterruptDisable(void)
			{
				GCC_MEMORY_BARRIER();

				#if (ARCH == ARCH_AVR8)
				cli();
    1bee:	f8 94       	cli
				__builtin_ssrf(AVR32_SR_GM_OFFSET);
				#elif (ARCH == ARCH_XMEGA)
				cli();
				#endif

				GCC_MEMORY_BARRIER();
    1bf0:	de 01       	movw	r26, r28
    1bf2:	13 96       	adiw	r26, 0x03	; 3
				uint_reg_t CurrentGlobalInt = GetGlobalInterruptMask();
				GlobalInterruptDisable();

				uint8_t SigReadAddress = INTERNAL_SERIAL_START_ADDRESS;

				for (uint8_t SerialCharNum = 0; SerialCharNum < (INTERNAL_SERIAL_LENGTH_BITS / 4); SerialCharNum++)
    1bf4:	20 e0       	ldi	r18, 0x00	; 0
			static inline void USB_Device_GetSerialString(uint16_t* const UnicodeString)
			{
				uint_reg_t CurrentGlobalInt = GetGlobalInterruptMask();
				GlobalInterruptDisable();

				uint8_t SigReadAddress = INTERNAL_SERIAL_START_ADDRESS;
    1bf6:	3e e0       	ldi	r19, 0x0E	; 14

				for (uint8_t SerialCharNum = 0; SerialCharNum < (INTERNAL_SERIAL_LENGTH_BITS / 4); SerialCharNum++)
				{
					uint8_t SerialByte = boot_signature_byte_get(SigReadAddress);
    1bf8:	51 e2       	ldi	r21, 0x21	; 33
    1bfa:	e3 2f       	mov	r30, r19
    1bfc:	f0 e0       	ldi	r31, 0x00	; 0
    1bfe:	50 93 57 00 	sts	0x0057, r21	; 0x800057 <__EEPROM_REGION_LENGTH__+0x7f0057>
    1c02:	e4 91       	lpm	r30, Z

					if (SerialCharNum & 0x01)
    1c04:	20 ff       	sbrs	r18, 0
    1c06:	03 c0       	rjmp	.+6      	; 0x1c0e <USB_Device_ProcessControlRequest+0x1a2>
					{
						SerialByte >>= 4;
    1c08:	e2 95       	swap	r30
    1c0a:	ef 70       	andi	r30, 0x0F	; 15
						SigReadAddress++;
    1c0c:	3f 5f       	subi	r19, 0xFF	; 255
					}

					SerialByte &= 0x0F;
    1c0e:	ef 70       	andi	r30, 0x0F	; 15
    1c10:	8e 2f       	mov	r24, r30
    1c12:	90 e0       	ldi	r25, 0x00	; 0

					UnicodeString[SerialCharNum] = cpu_to_le16((SerialByte >= 10) ?
    1c14:	ea 30       	cpi	r30, 0x0A	; 10
    1c16:	10 f0       	brcs	.+4      	; 0x1c1c <USB_Device_ProcessControlRequest+0x1b0>
    1c18:	c7 96       	adiw	r24, 0x37	; 55
    1c1a:	01 c0       	rjmp	.+2      	; 0x1c1e <USB_Device_ProcessControlRequest+0x1b2>
    1c1c:	c0 96       	adiw	r24, 0x30	; 48
    1c1e:	8d 93       	st	X+, r24
    1c20:	9d 93       	st	X+, r25
				uint_reg_t CurrentGlobalInt = GetGlobalInterruptMask();
				GlobalInterruptDisable();

				uint8_t SigReadAddress = INTERNAL_SERIAL_START_ADDRESS;

				for (uint8_t SerialCharNum = 0; SerialCharNum < (INTERNAL_SERIAL_LENGTH_BITS / 4); SerialCharNum++)
    1c22:	2f 5f       	subi	r18, 0xFF	; 255
    1c24:	24 31       	cpi	r18, 0x14	; 20
    1c26:	49 f7       	brne	.-46     	; 0x1bfa <USB_Device_ProcessControlRequest+0x18e>
			static inline void SetGlobalInterruptMask(const uint_reg_t GlobalIntState)
			{
				GCC_MEMORY_BARRIER();

				#if (ARCH == ARCH_AVR8)
				SREG = GlobalIntState;
    1c28:	4f bf       	out	0x3f, r20	; 63
			 *  \note This is not applicable for non CONTROL type endpoints.
			 */
			static inline void Endpoint_ClearSETUP(void) ATTR_ALWAYS_INLINE;
			static inline void Endpoint_ClearSETUP(void)
			{
				UEINTX &= ~(1 << RXSTPI);
    1c2a:	80 91 e8 00 	lds	r24, 0x00E8	; 0x8000e8 <__EEPROM_REGION_LENGTH__+0x7f00e8>
    1c2e:	87 7f       	andi	r24, 0xF7	; 247
    1c30:	80 93 e8 00 	sts	0x00E8, r24	; 0x8000e8 <__EEPROM_REGION_LENGTH__+0x7f00e8>

	USB_Device_GetSerialString(SignatureDescriptor.UnicodeString);

	Endpoint_ClearSETUP();

	Endpoint_Write_Control_Stream_LE(&SignatureDescriptor, sizeof(SignatureDescriptor));
    1c34:	6a e2       	ldi	r22, 0x2A	; 42
    1c36:	70 e0       	ldi	r23, 0x00	; 0
    1c38:	ce 01       	movw	r24, r28
    1c3a:	01 96       	adiw	r24, 0x01	; 1
    1c3c:	6f dc       	rcall	.-1826   	; 0x151c <Endpoint_Write_Control_Stream_LE>
    1c3e:	13 c0       	rjmp	.+38     	; 0x1c66 <USB_Device_ProcessControlRequest+0x1fa>
		USB_Device_GetInternalSerialDescriptor();
		return;
	}
	#endif

	if ((DescriptorSize = CALLBACK_USB_GetDescriptor(USB_ControlRequest.wValue, USB_ControlRequest.wIndex,
    1c40:	ae 01       	movw	r20, r28
    1c42:	4f 5f       	subi	r20, 0xFF	; 255
    1c44:	5f 4f       	sbci	r21, 0xFF	; 255
    1c46:	60 91 fa 02 	lds	r22, 0x02FA	; 0x8002fa <USB_ControlRequest+0x4>
    1c4a:	0e 94 cf 04 	call	0x99e	; 0x99e <CALLBACK_USB_GetDescriptor>
    1c4e:	bc 01       	movw	r22, r24
    1c50:	89 2b       	or	r24, r25
    1c52:	09 f4       	brne	.+2      	; 0x1c56 <USB_Device_ProcessControlRequest+0x1ea>
    1c54:	3c c0       	rjmp	.+120    	; 0x1cce <USB_Device_ProcessControlRequest+0x262>
    1c56:	90 91 e8 00 	lds	r25, 0x00E8	; 0x8000e8 <__EEPROM_REGION_LENGTH__+0x7f00e8>
    1c5a:	97 7f       	andi	r25, 0xF7	; 247
    1c5c:	90 93 e8 00 	sts	0x00E8, r25	; 0x8000e8 <__EEPROM_REGION_LENGTH__+0x7f00e8>
	#if defined(USE_RAM_DESCRIPTORS) || !defined(ARCH_HAS_MULTI_ADDRESS_SPACE)
	Endpoint_Write_Control_Stream_LE(DescriptorPointer, DescriptorSize);
	#elif defined(USE_EEPROM_DESCRIPTORS)
	Endpoint_Write_Control_EStream_LE(DescriptorPointer, DescriptorSize);
	#elif defined(USE_FLASH_DESCRIPTORS)
	Endpoint_Write_Control_PStream_LE(DescriptorPointer, DescriptorSize);
    1c60:	89 81       	ldd	r24, Y+1	; 0x01
    1c62:	9a 81       	ldd	r25, Y+2	; 0x02
    1c64:	b3 dc       	rcall	.-1690   	; 0x15cc <Endpoint_Write_Control_PStream_LE>
			 */
			static inline void Endpoint_ClearOUT(void) ATTR_ALWAYS_INLINE;
			static inline void Endpoint_ClearOUT(void)
			{
				#if !defined(CONTROL_ONLY_DEVICE)
					UEINTX &= ~((1 << RXOUTI) | (1 << FIFOCON));
    1c66:	80 91 e8 00 	lds	r24, 0x00E8	; 0x8000e8 <__EEPROM_REGION_LENGTH__+0x7f00e8>
    1c6a:	8b 77       	andi	r24, 0x7B	; 123
    1c6c:	80 93 e8 00 	sts	0x00E8, r24	; 0x8000e8 <__EEPROM_REGION_LENGTH__+0x7f00e8>
    1c70:	2e c0       	rjmp	.+92     	; 0x1cce <USB_Device_ProcessControlRequest+0x262>
					USB_Device_GetDescriptor();
				}

				break;
			case REQ_GetConfiguration:
				if (bmRequestType == (REQDIR_DEVICETOHOST | REQTYPE_STANDARD | REQREC_DEVICE))
    1c72:	80 38       	cpi	r24, 0x80	; 128
    1c74:	61 f5       	brne	.+88     	; 0x1cce <USB_Device_ProcessControlRequest+0x262>
			 *  \note This is not applicable for non CONTROL type endpoints.
			 */
			static inline void Endpoint_ClearSETUP(void) ATTR_ALWAYS_INLINE;
			static inline void Endpoint_ClearSETUP(void)
			{
				UEINTX &= ~(1 << RXSTPI);
    1c76:	80 91 e8 00 	lds	r24, 0x00E8	; 0x8000e8 <__EEPROM_REGION_LENGTH__+0x7f00e8>
    1c7a:	87 7f       	andi	r24, 0xF7	; 247
    1c7c:	80 93 e8 00 	sts	0x00E8, r24	; 0x8000e8 <__EEPROM_REGION_LENGTH__+0x7f00e8>

static void USB_Device_GetConfiguration(void)
{
	Endpoint_ClearSETUP();

	Endpoint_Write_8(USB_Device_ConfigurationNumber);
    1c80:	80 91 f2 02 	lds	r24, 0x02F2	; 0x8002f2 <USB_Device_ConfigurationNumber>
			 *  \param[in] Data  Data to write into the the currently selected endpoint's FIFO buffer.
			 */
			static inline void Endpoint_Write_8(const uint8_t Data) ATTR_ALWAYS_INLINE;
			static inline void Endpoint_Write_8(const uint8_t Data)
			{
				UEDATX = Data;
    1c84:	80 93 f1 00 	sts	0x00F1, r24	; 0x8000f1 <__EEPROM_REGION_LENGTH__+0x7f00f1>
			 */
			static inline void Endpoint_ClearIN(void) ATTR_ALWAYS_INLINE;
			static inline void Endpoint_ClearIN(void)
			{
				#if !defined(CONTROL_ONLY_DEVICE)
					UEINTX &= ~((1 << TXINI) | (1 << FIFOCON));
    1c88:	80 91 e8 00 	lds	r24, 0x00E8	; 0x8000e8 <__EEPROM_REGION_LENGTH__+0x7f00e8>
    1c8c:	8e 77       	andi	r24, 0x7E	; 126
    1c8e:	80 93 e8 00 	sts	0x00E8, r24	; 0x8000e8 <__EEPROM_REGION_LENGTH__+0x7f00e8>
	Endpoint_ClearIN();

	Endpoint_ClearStatusStage();
    1c92:	70 dd       	rcall	.-1312   	; 0x1774 <Endpoint_ClearStatusStage>
    1c94:	1c c0       	rjmp	.+56     	; 0x1cce <USB_Device_ProcessControlRequest+0x262>
				if (bmRequestType == (REQDIR_DEVICETOHOST | REQTYPE_STANDARD | REQREC_DEVICE))
				  USB_Device_GetConfiguration();

				break;
			case REQ_SetConfiguration:
				if (bmRequestType == (REQDIR_HOSTTODEVICE | REQTYPE_STANDARD | REQREC_DEVICE))
    1c96:	81 11       	cpse	r24, r1
    1c98:	1a c0       	rjmp	.+52     	; 0x1cce <USB_Device_ProcessControlRequest+0x262>
}

static void USB_Device_SetConfiguration(void)
{
	#if defined(FIXED_NUM_CONFIGURATIONS)
	if ((uint8_t)USB_ControlRequest.wValue > FIXED_NUM_CONFIGURATIONS)
    1c9a:	90 91 f8 02 	lds	r25, 0x02F8	; 0x8002f8 <USB_ControlRequest+0x2>
    1c9e:	92 30       	cpi	r25, 0x02	; 2
    1ca0:	b0 f4       	brcc	.+44     	; 0x1cce <USB_Device_ProcessControlRequest+0x262>
			 *  \note This is not applicable for non CONTROL type endpoints.
			 */
			static inline void Endpoint_ClearSETUP(void) ATTR_ALWAYS_INLINE;
			static inline void Endpoint_ClearSETUP(void)
			{
				UEINTX &= ~(1 << RXSTPI);
    1ca2:	80 91 e8 00 	lds	r24, 0x00E8	; 0x8000e8 <__EEPROM_REGION_LENGTH__+0x7f00e8>
    1ca6:	87 7f       	andi	r24, 0xF7	; 247
    1ca8:	80 93 e8 00 	sts	0x00E8, r24	; 0x8000e8 <__EEPROM_REGION_LENGTH__+0x7f00e8>
	#endif
	#endif

	Endpoint_ClearSETUP();

	USB_Device_ConfigurationNumber = (uint8_t)USB_ControlRequest.wValue;
    1cac:	90 93 f2 02 	sts	0x02F2, r25	; 0x8002f2 <USB_Device_ConfigurationNumber>

	Endpoint_ClearStatusStage();
    1cb0:	61 dd       	rcall	.-1342   	; 0x1774 <Endpoint_ClearStatusStage>

	if (USB_Device_ConfigurationNumber)
    1cb2:	80 91 f2 02 	lds	r24, 0x02F2	; 0x8002f2 <USB_Device_ConfigurationNumber>
    1cb6:	81 11       	cpse	r24, r1
    1cb8:	06 c0       	rjmp	.+12     	; 0x1cc6 <USB_Device_ProcessControlRequest+0x25a>
			}

			static inline bool USB_Device_IsAddressSet(void) ATTR_ALWAYS_INLINE ATTR_WARN_UNUSED_RESULT;
			static inline bool USB_Device_IsAddressSet(void)
			{
				return (UDADDR & (1 << ADDEN));
    1cba:	80 91 e3 00 	lds	r24, 0x00E3	; 0x8000e3 <__EEPROM_REGION_LENGTH__+0x7f00e3>
	  USB_DeviceState = DEVICE_STATE_Configured;
	else
	  USB_DeviceState = (USB_Device_IsAddressSet()) ? DEVICE_STATE_Configured : DEVICE_STATE_Powered;
    1cbe:	87 fd       	sbrc	r24, 7
    1cc0:	02 c0       	rjmp	.+4      	; 0x1cc6 <USB_Device_ProcessControlRequest+0x25a>
    1cc2:	81 e0       	ldi	r24, 0x01	; 1
    1cc4:	01 c0       	rjmp	.+2      	; 0x1cc8 <USB_Device_ProcessControlRequest+0x25c>
    1cc6:	84 e0       	ldi	r24, 0x04	; 4
    1cc8:	8e bb       	out	0x1e, r24	; 30

	EVENT_USB_Device_ConfigurationChanged();
    1cca:	0e 94 4f 02 	call	0x49e	; 0x49e <EVENT_USB_Device_ConfigurationChanged>
			 *  \return Boolean \c true if the selected endpoint has received a SETUP packet, \c false otherwise.
			 */
			static inline bool Endpoint_IsSETUPReceived(void) ATTR_WARN_UNUSED_RESULT ATTR_ALWAYS_INLINE;
			static inline bool Endpoint_IsSETUPReceived(void)
			{
				return ((UEINTX & (1 << RXSTPI)) ? true : false);
    1cce:	80 91 e8 00 	lds	r24, 0x00E8	; 0x8000e8 <__EEPROM_REGION_LENGTH__+0x7f00e8>
			default:
				break;
		}
	}

	if (Endpoint_IsSETUPReceived())
    1cd2:	83 ff       	sbrs	r24, 3
    1cd4:	0a c0       	rjmp	.+20     	; 0x1cea <USB_Device_ProcessControlRequest+0x27e>
			 *  \note This is not applicable for non CONTROL type endpoints.
			 */
			static inline void Endpoint_ClearSETUP(void) ATTR_ALWAYS_INLINE;
			static inline void Endpoint_ClearSETUP(void)
			{
				UEINTX &= ~(1 << RXSTPI);
    1cd6:	80 91 e8 00 	lds	r24, 0x00E8	; 0x8000e8 <__EEPROM_REGION_LENGTH__+0x7f00e8>
    1cda:	87 7f       	andi	r24, 0xF7	; 247
    1cdc:	80 93 e8 00 	sts	0x00E8, r24	; 0x8000e8 <__EEPROM_REGION_LENGTH__+0x7f00e8>
			 *  \ingroup Group_EndpointPacketManagement_AVR8
			 */
			static inline void Endpoint_StallTransaction(void) ATTR_ALWAYS_INLINE;
			static inline void Endpoint_StallTransaction(void)
			{
				UECONX |= (1 << STALLRQ);
    1ce0:	80 91 eb 00 	lds	r24, 0x00EB	; 0x8000eb <__EEPROM_REGION_LENGTH__+0x7f00eb>
    1ce4:	80 62       	ori	r24, 0x20	; 32
    1ce6:	80 93 eb 00 	sts	0x00EB, r24	; 0x8000eb <__EEPROM_REGION_LENGTH__+0x7f00eb>
	{
		Endpoint_ClearSETUP();
		Endpoint_StallTransaction();
	}
}
    1cea:	aa 96       	adiw	r28, 0x2a	; 42
    1cec:	0f b6       	in	r0, 0x3f	; 63
    1cee:	f8 94       	cli
    1cf0:	de bf       	out	0x3e, r29	; 62
    1cf2:	0f be       	out	0x3f, r0	; 63
    1cf4:	cd bf       	out	0x3d, r28	; 61
    1cf6:	df 91       	pop	r29
    1cf8:	cf 91       	pop	r28
    1cfa:	1f 91       	pop	r17
    1cfc:	08 95       	ret

00001cfe <USB_Event_Stub>:
#define  __INCLUDE_FROM_EVENTS_C
#define  __INCLUDE_FROM_USB_DRIVER
#include "Events.h"

void USB_Event_Stub(void)
{
    1cfe:	08 95       	ret

00001d00 <USB_USBTask>:
#if defined(USB_CAN_BE_DEVICE) && !defined(DEVICE_STATE_AS_GPIOR)
volatile uint8_t     USB_DeviceState;
#endif

void USB_USBTask(void)
{
    1d00:	cf 93       	push	r28
}

#if defined(USB_CAN_BE_DEVICE)
static void USB_DeviceTask(void)
{
	if (USB_DeviceState == DEVICE_STATE_Unattached)
    1d02:	8e b3       	in	r24, 0x1e	; 30
    1d04:	88 23       	and	r24, r24
    1d06:	99 f0       	breq	.+38     	; 0x1d2e <USB_USBTask+0x2e>
			 */
			static inline uint8_t Endpoint_GetCurrentEndpoint(void) ATTR_WARN_UNUSED_RESULT ATTR_ALWAYS_INLINE;
			static inline uint8_t Endpoint_GetCurrentEndpoint(void)
			{
				#if !defined(CONTROL_ONLY_DEVICE)
					return ((UENUM & ENDPOINT_EPNUM_MASK) | Endpoint_GetEndpointDirection());
    1d08:	c0 91 e9 00 	lds	r28, 0x00E9	; 0x8000e9 <__EEPROM_REGION_LENGTH__+0x7f00e9>
    1d0c:	cf 70       	andi	r28, 0x0F	; 15
			 *  \return The currently selected endpoint's direction, as a \c ENDPOINT_DIR_* mask.
			 */
			static inline uint8_t Endpoint_GetEndpointDirection(void) ATTR_WARN_UNUSED_RESULT ATTR_ALWAYS_INLINE;
			static inline uint8_t Endpoint_GetEndpointDirection(void)
			{
				return (UECFG0X & (1 << EPDIR)) ? ENDPOINT_DIR_IN : ENDPOINT_DIR_OUT;
    1d0e:	90 91 ec 00 	lds	r25, 0x00EC	; 0x8000ec <__EEPROM_REGION_LENGTH__+0x7f00ec>
    1d12:	89 2f       	mov	r24, r25
    1d14:	81 70       	andi	r24, 0x01	; 1
    1d16:	90 fd       	sbrc	r25, 0
    1d18:	80 e8       	ldi	r24, 0x80	; 128
			 */
			static inline uint8_t Endpoint_GetCurrentEndpoint(void) ATTR_WARN_UNUSED_RESULT ATTR_ALWAYS_INLINE;
			static inline uint8_t Endpoint_GetCurrentEndpoint(void)
			{
				#if !defined(CONTROL_ONLY_DEVICE)
					return ((UENUM & ENDPOINT_EPNUM_MASK) | Endpoint_GetEndpointDirection());
    1d1a:	c8 2b       	or	r28, r24
			 */
			static inline void Endpoint_SelectEndpoint(const uint8_t Address) ATTR_ALWAYS_INLINE;
			static inline void Endpoint_SelectEndpoint(const uint8_t Address)
			{
				#if !defined(CONTROL_ONLY_DEVICE)
					UENUM = (Address & ENDPOINT_EPNUM_MASK);
    1d1c:	10 92 e9 00 	sts	0x00E9, r1	; 0x8000e9 <__EEPROM_REGION_LENGTH__+0x7f00e9>
			 *  \return Boolean \c true if the selected endpoint has received a SETUP packet, \c false otherwise.
			 */
			static inline bool Endpoint_IsSETUPReceived(void) ATTR_WARN_UNUSED_RESULT ATTR_ALWAYS_INLINE;
			static inline bool Endpoint_IsSETUPReceived(void)
			{
				return ((UEINTX & (1 << RXSTPI)) ? true : false);
    1d20:	80 91 e8 00 	lds	r24, 0x00E8	; 0x8000e8 <__EEPROM_REGION_LENGTH__+0x7f00e8>

	uint8_t PrevEndpoint = Endpoint_GetCurrentEndpoint();

	Endpoint_SelectEndpoint(ENDPOINT_CONTROLEP);

	if (Endpoint_IsSETUPReceived())
    1d24:	83 fd       	sbrc	r24, 3
	  USB_Device_ProcessControlRequest();
    1d26:	a2 de       	rcall	.-700    	; 0x1a6c <USB_Device_ProcessControlRequest>
			 */
			static inline void Endpoint_SelectEndpoint(const uint8_t Address) ATTR_ALWAYS_INLINE;
			static inline void Endpoint_SelectEndpoint(const uint8_t Address)
			{
				#if !defined(CONTROL_ONLY_DEVICE)
					UENUM = (Address & ENDPOINT_EPNUM_MASK);
    1d28:	cf 70       	andi	r28, 0x0F	; 15
    1d2a:	c0 93 e9 00 	sts	0x00E9, r28	; 0x8000e9 <__EEPROM_REGION_LENGTH__+0x7f00e9>
	#elif defined(USB_CAN_BE_HOST)
		USB_HostTask();
	#elif defined(USB_CAN_BE_DEVICE)
		USB_DeviceTask();
	#endif
}
    1d2e:	cf 91       	pop	r28
    1d30:	08 95       	ret

00001d32 <__divmodhi4>:
    1d32:	97 fb       	bst	r25, 7
    1d34:	07 2e       	mov	r0, r23
    1d36:	16 f4       	brtc	.+4      	; 0x1d3c <__divmodhi4+0xa>
    1d38:	00 94       	com	r0
    1d3a:	06 d0       	rcall	.+12     	; 0x1d48 <__divmodhi4_neg1>
    1d3c:	77 fd       	sbrc	r23, 7
    1d3e:	08 d0       	rcall	.+16     	; 0x1d50 <__divmodhi4_neg2>
    1d40:	33 d0       	rcall	.+102    	; 0x1da8 <__udivmodhi4>
    1d42:	07 fc       	sbrc	r0, 7
    1d44:	05 d0       	rcall	.+10     	; 0x1d50 <__divmodhi4_neg2>
    1d46:	3e f4       	brtc	.+14     	; 0x1d56 <__divmodhi4_exit>

00001d48 <__divmodhi4_neg1>:
    1d48:	90 95       	com	r25
    1d4a:	81 95       	neg	r24
    1d4c:	9f 4f       	sbci	r25, 0xFF	; 255
    1d4e:	08 95       	ret

00001d50 <__divmodhi4_neg2>:
    1d50:	70 95       	com	r23
    1d52:	61 95       	neg	r22
    1d54:	7f 4f       	sbci	r23, 0xFF	; 255

00001d56 <__divmodhi4_exit>:
    1d56:	08 95       	ret

00001d58 <__udivmodsi4>:
    1d58:	a1 e2       	ldi	r26, 0x21	; 33
    1d5a:	1a 2e       	mov	r1, r26
    1d5c:	aa 1b       	sub	r26, r26
    1d5e:	bb 1b       	sub	r27, r27
    1d60:	fd 01       	movw	r30, r26
    1d62:	0d c0       	rjmp	.+26     	; 0x1d7e <__udivmodsi4_ep>

00001d64 <__udivmodsi4_loop>:
    1d64:	aa 1f       	adc	r26, r26
    1d66:	bb 1f       	adc	r27, r27
    1d68:	ee 1f       	adc	r30, r30
    1d6a:	ff 1f       	adc	r31, r31
    1d6c:	a2 17       	cp	r26, r18
    1d6e:	b3 07       	cpc	r27, r19
    1d70:	e4 07       	cpc	r30, r20
    1d72:	f5 07       	cpc	r31, r21
    1d74:	20 f0       	brcs	.+8      	; 0x1d7e <__udivmodsi4_ep>
    1d76:	a2 1b       	sub	r26, r18
    1d78:	b3 0b       	sbc	r27, r19
    1d7a:	e4 0b       	sbc	r30, r20
    1d7c:	f5 0b       	sbc	r31, r21

00001d7e <__udivmodsi4_ep>:
    1d7e:	66 1f       	adc	r22, r22
    1d80:	77 1f       	adc	r23, r23
    1d82:	88 1f       	adc	r24, r24
    1d84:	99 1f       	adc	r25, r25
    1d86:	1a 94       	dec	r1
    1d88:	69 f7       	brne	.-38     	; 0x1d64 <__udivmodsi4_loop>
    1d8a:	60 95       	com	r22
    1d8c:	70 95       	com	r23
    1d8e:	80 95       	com	r24
    1d90:	90 95       	com	r25
    1d92:	9b 01       	movw	r18, r22
    1d94:	ac 01       	movw	r20, r24
    1d96:	bd 01       	movw	r22, r26
    1d98:	cf 01       	movw	r24, r30
    1d9a:	08 95       	ret

00001d9c <__tablejump2__>:
    1d9c:	ee 0f       	add	r30, r30
    1d9e:	ff 1f       	adc	r31, r31
    1da0:	05 90       	lpm	r0, Z+
    1da2:	f4 91       	lpm	r31, Z
    1da4:	e0 2d       	mov	r30, r0
    1da6:	09 94       	ijmp

00001da8 <__udivmodhi4>:
    1da8:	aa 1b       	sub	r26, r26
    1daa:	bb 1b       	sub	r27, r27
    1dac:	51 e1       	ldi	r21, 0x11	; 17
    1dae:	07 c0       	rjmp	.+14     	; 0x1dbe <__udivmodhi4_ep>

00001db0 <__udivmodhi4_loop>:
    1db0:	aa 1f       	adc	r26, r26
    1db2:	bb 1f       	adc	r27, r27
    1db4:	a6 17       	cp	r26, r22
    1db6:	b7 07       	cpc	r27, r23
    1db8:	10 f0       	brcs	.+4      	; 0x1dbe <__udivmodhi4_ep>
    1dba:	a6 1b       	sub	r26, r22
    1dbc:	b7 0b       	sbc	r27, r23

00001dbe <__udivmodhi4_ep>:
    1dbe:	88 1f       	adc	r24, r24
    1dc0:	99 1f       	adc	r25, r25
    1dc2:	5a 95       	dec	r21
    1dc4:	a9 f7       	brne	.-22     	; 0x1db0 <__udivmodhi4_loop>
    1dc6:	80 95       	com	r24
    1dc8:	90 95       	com	r25
    1dca:	bc 01       	movw	r22, r24
    1dcc:	cd 01       	movw	r24, r26
    1dce:	08 95       	ret

00001dd0 <eeprom_read_byte>:
    1dd0:	f9 99       	sbic	0x1f, 1	; 31
    1dd2:	fe cf       	rjmp	.-4      	; 0x1dd0 <eeprom_read_byte>
    1dd4:	92 bd       	out	0x22, r25	; 34
    1dd6:	81 bd       	out	0x21, r24	; 33
    1dd8:	f8 9a       	sbi	0x1f, 0	; 31
    1dda:	99 27       	eor	r25, r25
    1ddc:	80 b5       	in	r24, 0x20	; 32
    1dde:	08 95       	ret

00001de0 <eeprom_read_word>:
    1de0:	a8 e1       	ldi	r26, 0x18	; 24
    1de2:	b0 e0       	ldi	r27, 0x00	; 0
    1de4:	42 e0       	ldi	r20, 0x02	; 2
    1de6:	50 e0       	ldi	r21, 0x00	; 0
    1de8:	18 c0       	rjmp	.+48     	; 0x1e1a <eeprom_read_blraw>

00001dea <eeprom_update_byte>:
    1dea:	26 2f       	mov	r18, r22

00001dec <eeprom_update_r18>:
    1dec:	f9 99       	sbic	0x1f, 1	; 31
    1dee:	fe cf       	rjmp	.-4      	; 0x1dec <eeprom_update_r18>
    1df0:	92 bd       	out	0x22, r25	; 34
    1df2:	81 bd       	out	0x21, r24	; 33
    1df4:	f8 9a       	sbi	0x1f, 0	; 31
    1df6:	01 97       	sbiw	r24, 0x01	; 1
    1df8:	00 b4       	in	r0, 0x20	; 32
    1dfa:	02 16       	cp	r0, r18
    1dfc:	39 f0       	breq	.+14     	; 0x1e0c <eeprom_update_r18+0x20>
    1dfe:	1f ba       	out	0x1f, r1	; 31
    1e00:	20 bd       	out	0x20, r18	; 32
    1e02:	0f b6       	in	r0, 0x3f	; 63
    1e04:	f8 94       	cli
    1e06:	fa 9a       	sbi	0x1f, 2	; 31
    1e08:	f9 9a       	sbi	0x1f, 1	; 31
    1e0a:	0f be       	out	0x3f, r0	; 63
    1e0c:	08 95       	ret

00001e0e <eeprom_update_word>:
    1e0e:	01 96       	adiw	r24, 0x01	; 1
    1e10:	27 2f       	mov	r18, r23
    1e12:	ec df       	rcall	.-40     	; 0x1dec <eeprom_update_r18>
    1e14:	ea cf       	rjmp	.-44     	; 0x1dea <eeprom_update_byte>

00001e16 <eeprom_read_block>:
    1e16:	dc 01       	movw	r26, r24
    1e18:	cb 01       	movw	r24, r22

00001e1a <eeprom_read_blraw>:
    1e1a:	fc 01       	movw	r30, r24
    1e1c:	f9 99       	sbic	0x1f, 1	; 31
    1e1e:	fe cf       	rjmp	.-4      	; 0x1e1c <eeprom_read_blraw+0x2>
    1e20:	06 c0       	rjmp	.+12     	; 0x1e2e <eeprom_read_blraw+0x14>
    1e22:	f2 bd       	out	0x22, r31	; 34
    1e24:	e1 bd       	out	0x21, r30	; 33
    1e26:	f8 9a       	sbi	0x1f, 0	; 31
    1e28:	31 96       	adiw	r30, 0x01	; 1
    1e2a:	00 b4       	in	r0, 0x20	; 32
    1e2c:	0d 92       	st	X+, r0
    1e2e:	41 50       	subi	r20, 0x01	; 1
    1e30:	50 40       	sbci	r21, 0x00	; 0
    1e32:	b8 f7       	brcc	.-18     	; 0x1e22 <eeprom_read_blraw+0x8>
    1e34:	08 95       	ret

00001e36 <_exit>:
    1e36:	f8 94       	cli

00001e38 <__stop_program>:
    1e38:	ff cf       	rjmp	.-2      	; 0x1e38 <__stop_program>
